


ARM Macro Assembler    Page 1 Program Title for Listing Header Goes Here


    1 00000000                 TTL              Program Title for Listing Heade
r Goes Here
    2 00000000         ;*******************************************************
                       *********
    3 00000000         ;Descriptive comment header goes here.
    4 00000000         ;A game of scrable where the user tries to unscramble
    5 00000000         ;letters to make the correct word.
    6 00000000         ;Name:  Camille Lea
    7 00000000         ;Date:  <>
    8 00000000         ;Class:  CMPE-250
    9 00000000         ;Section:  <L1, Tuesday, 11am>
   10 00000000         ;-------------------------------------------------------
                       --------
   11 00000000         ;Keil Template for KL05
   12 00000000         ;R. W. Melton
   13 00000000         ;September 13, 2020
   14 00000000         ;*******************************************************
                       *********
   15 00000000         ;Assembler directives
   16 00000000                 THUMB
   18 00000000         ;*******************************************************
                       *********
   19 00000000         ;Include files
   20 00000000                 GET              MKL05Z4.s   ;Included by start.
                                                            s
   22 00000000         ;*******************************************************
                       *********
   23 00000000         ;EQUates
   24 00000000 0000000D 
                       CR      EQU              0x0D
   25 00000000 0000000A 
                       LF      EQU              0x0A
   26 00000000 00000000 
                       NULL    EQU              0x00
   27 00000000 00000006 
                       n       EQU              6           ;amount of items th
                                                            at I want in my arr
                                                            ay
   28 00000000 00000001 
                       ACCUM   EQU              1
   29 00000000         
   30 00000000 00000006 
                       MAX_EAS EQU              6           ;maximum number of 
                                                            characters entered 
                                                            (+1 for null termin
                                                            ation) 
   31 00000000 00000007 
                       MAX_MED EQU              7
   32 00000000 0000000A 
                       MAX_HAR EQU              10
   33 00000000 000000C8 
                       MAX_STRING
                               EQU              200
   34 00000000         
   35 00000000 00000059 
                       Y_ascii EQU              0x59
   36 00000000 0000004E 
                       N_ascii EQU              0x4e
   37 00000000         



ARM Macro Assembler    Page 2 Program Title for Listing Header Goes Here


   38 00000000 00000044 
                       D_ascii EQU              0x44
   39 00000000 00000045 
                       E_ascii EQU              0x45
   40 00000000 00000048 
                       H_ascii EQU              0x48
   41 00000000 00000050 
                       P_ascii EQU              0x50
   42 00000000 00000054 
                       T_ascii EQU              0x54
   43 00000000         
   44 00000000 00000012 
                       Rx_Q_REC
                               EQU              18
   45 00000000 00000012 
                       Tx_Q_REC
                               EQU              18
   46 00000000         
   47 00000000 00000050 
                       Tx_Q_BUF
                               EQU              80
   48 00000000 00000050 
                       Rx_Q_BUF
                               EQU              80
   49 00000000         
   50 00000000 00000004 
                       Q_BUF_SZ
                               EQU              4           ;Queue contents
   51 00000000 00000012 
                       Q_REC_SZ
                               EQU              18          ;Queue management r
                                                            ecord
   52 00000000         
   53 00000000 00000000 
                       IN_PTR  EQU              0
   54 00000000 00000004 
                       OUT_PTR EQU              4
   55 00000000 00000008 
                       BUF_STRT
                               EQU              8
   56 00000000 0000000C 
                       BUF_PAST
                               EQU              12
   57 00000000 00000010 
                       BUF_SIZE
                               EQU              16
   58 00000000 00000011 
                       NUM_ENQD
                               EQU              17
   59 00000000         
   60 00000000         ;-------------------------------------------------------
                       --------
   61 00000000         ;NVIC_ICER
   62 00000000         ;31-00:CLRENA=masks for HW IRQ sources;
   63 00000000         ;             read:   0 = unmasked;   1 = masked
   64 00000000         ;             write:  0 = no effect;  1 = mask
   65 00000000         ;22:PIT IRQ mask
   66 00000000         ;12:UART0 IRQ mask
   67 00000000 00400000 



ARM Macro Assembler    Page 3 Program Title for Listing Header Goes Here


                       NVIC_ICER_PIT_MASK
                               EQU              PIT_IRQ_MASK
   68 00000000 00001000 
                       NVIC_ICER_UART0_MASK
                               EQU              UART0_IRQ_MASK
   69 00000000         ;-------------------------------------------------------
                       --------
   70 00000000         ;NVIC_ICPR
   71 00000000         ;31-00:CLRPEND=pending status for HW IRQ sources;
   72 00000000         ;             read:   0 = not pending;  1 = pending
   73 00000000         ;             write:  0 = no effect;
   74 00000000         ;                     1 = change status to not pending
   75 00000000         ;22:PIT IRQ pending status
   76 00000000         ;12:UART0 IRQ pending status
   77 00000000 00400000 
                       NVIC_ICPR_PIT_MASK
                               EQU              PIT_IRQ_MASK
   78 00000000 00001000 
                       NVIC_ICPR_UART0_MASK
                               EQU              UART0_IRQ_MASK
   79 00000000         ;-------------------------------------------------------
                       --------
   80 00000000         ;NVIC_IPR0-NVIC_IPR7
   81 00000000         ;2-bit priority:  00 = highest; 11 = lowest
   82 00000000         ;--PIT--------------------
   83 00000000 00000000 
                       PIT_IRQ_PRIORITY
                               EQU              0
   84 00000000 00C00000 
                       NVIC_IPR_PIT_MASK
                               EQU              (3 << PIT_PRI_POS)
   85 00000000 00000000 
                       NVIC_IPR_PIT_PRI_0
                               EQU              (PIT_IRQ_PRIORITY << PIT_PRI_PO
S)
   86 00000000         ;--UART0--------------------
   87 00000000 00000003 
                       UART0_IRQ_PRIORITY
                               EQU              3
   88 00000000 000000C0 
                       NVIC_IPR_UART0_MASK
                               EQU              (3 << UART0_PRI_POS)
   89 00000000 000000C0 
                       NVIC_IPR_UART0_PRI_3
                               EQU              (UART0_IRQ_PRIORITY << UART0_PR
I_POS)
   90 00000000         ;-------------------------------------------------------
                       --------
   91 00000000         ;NVIC_ISER
   92 00000000         ;31-00:SETENA=masks for HW IRQ sources;
   93 00000000         ;             read:   0 = masked;     1 = unmasked
   94 00000000         ;             write:  0 = no effect;  1 = unmask
   95 00000000         ;22:PIT IRQ mask
   96 00000000         ;12:UART0 IRQ mask
   97 00000000 00400000 
                       NVIC_ISER_PIT_MASK
                               EQU              PIT_IRQ_MASK
   98 00000000 00001000 
                       NVIC_ISER_UART0_MASK



ARM Macro Assembler    Page 4 Program Title for Listing Header Goes Here


                               EQU              UART0_IRQ_MASK
   99 00000000         ;-------------------------------------------------------
                       --------
  100 00000000         ;PIT_LDVALn:  PIT load value register n
  101 00000000         ;31-00:TSV=timer start value (period in clock cycles - 1
                       )
  102 00000000         ;Clock ticks for 0.01 s at ~24 MHz count rate
  103 00000000         ;0.01 s * ~24,000,000 Hz = ~240,000
  104 00000000         ;TSV = ~240,000 - 1
  105 00000000         ;Clock ticks for 0.01 s at 23,986,176 Hz count rate
  106 00000000         ;0.01 s * 23,986,176 Hz = 239,862
  107 00000000         ;TSV = 239,862 - 1
  108 00000000 0003A8F5 
                       PIT_LDVAL_10ms
                               EQU              239861
  109 00000000         ;-------------------------------------------------------
                       --------
  110 00000000         ;PIT_MCR:  PIT module control register
  111 00000000         ;1-->    0:FRZ=freeze (continue'/stop in debug mode)
  112 00000000         ;0-->    1:MDIS=module disable (PIT section)
  113 00000000         ;               RTI timer not affected
  114 00000000         ;               must be enabled before any other PIT set
                       up
  115 00000000 00000001 
                       PIT_MCR_EN_FRZ
                               EQU              PIT_MCR_FRZ_MASK
  116 00000000         ;-------------------------------------------------------
                       --------
  117 00000000         ;PIT_TCTRL:  timer control register
  118 00000000         ;0-->   2:CHN=chain mode (enable)
  119 00000000         ;1-->   1:TIE=timer interrupt enable
  120 00000000         ;1-->   0:TEN=timer enable
  121 00000000 00000003 
                       PIT_TCTRL_CH_IE
                               EQU              (PIT_TCTRL_TEN_MASK :OR: PIT_TC
TRL_TIE_MASK)
  122 00000000         ;-------------------------------------------------------
                       --------
  123 00000000         ;PORTx_PCRn (Port x pin control register n [for pin n])
  124 00000000         ;___->10-08:Pin mux control (select 0 to 8)
  125 00000000         ;Use provided PORT_PCR_MUX_SELECT_2_MASK
  126 00000000         ;-------------------------------------------------------
                       --------
  127 00000000         ;Port B
  129 00000000 01000200 
                       PORT_PCR_SET_PTB2_UART0_RX
                               EQU              (PORT_PCR_ISF_MASK :OR:       
                             PORT_PCR_MUX_SELECT_2_MASK)
  131 00000000 01000200 
                       PORT_PCR_SET_PTB1_UART0_TX
                               EQU              (PORT_PCR_ISF_MASK :OR:       
                             PORT_PCR_MUX_SELECT_2_MASK)
  132 00000000         ;-------------------------------------------------------
                       --------
  133 00000000         ;SIM_SCGC4
  134 00000000         ;1->10:UART0 clock gate control (enabled)
  135 00000000         ;Use provided SIM_SCGC4_UART0_MASK
  136 00000000         ;-------------------------------------------------------
                       --------



ARM Macro Assembler    Page 5 Program Title for Listing Header Goes Here


  137 00000000         ;SIM_SCGC5
  138 00000000         ;1->09:Port A clock gate control (enabled)
  139 00000000         ;Use provided SIM_SCGC5_PORTA_MASK
  140 00000000         ;-------------------------------------------------------
                       --------
  141 00000000         ;SIM_SCGC6
  142 00000000         ;1->23:PIT clock gate control (enabled)
  143 00000000         ;Use provided SIM_SCGC6_PIT_MASK
  144 00000000         ;-------------------------------------------------------
                       --------
  145 00000000         ;SIM_SOPT2
  146 00000000         ;01=27-26:UART0SRC=UART0 clock source select (MCGFLLCLK)
                       
  147 00000000         ;-------------------------------------------------------
                       --------
  149 00000000 04000000 
                       SIM_SOPT2_UART0SRC_MCGFLLCLK
                               EQU              (1 << SIM_SOPT2_UART0SRC_SHIFT)
  150 00000000         ;-------------------------------------------------------
                       --------
  151 00000000         ;SIM_SOPT5
  152 00000000         ; 0->   16:UART0 open drain enable (disabled)
  153 00000000         ; 0->   02:UART0 receive data select (UART0_RX)
  154 00000000         ;00->01-00:UART0 transmit data select source (UART0_TX)
  158 00000000 00010005 
                       SIM_SOPT5_UART0_EXTERN_MASK_CLEAR
                               EQU              (SIM_SOPT5_UART0ODE_MASK :OR:  
                                SIM_SOPT5_UART0RXSRC_MASK :OR:               
                   SIM_SOPT5_UART0TXSRC_MASK)
  159 00000000         ;-------------------------------------------------------
                       --------
  160 00000000         ;UART0_BDH
  161 00000000         ;    0->  7:LIN break detect IE (disabled)
  162 00000000         ;    0->  6:RxD input active edge IE (disabled)
  163 00000000         ;    0->  5:Stop bit number select (1)
  164 00000000         ;00001->4-0:SBR[12:0] (UART0CLK / [9600 * (OSR + 1)]) 
  165 00000000         ;UART0CLK is MCGPLLCLK/2
  166 00000000         ;MCGPLLCLK is 96 MHz
  167 00000000         ;MCGPLLCLK/2 is 48 MHz
  168 00000000         ;SBR = 48 MHz / (9600 * 16) = 312.5 --> 312 = 0x138
  169 00000000 00000001 
                       UART0_BDH_9600
                               EQU              0x01
  170 00000000         ;-------------------------------------------------------
                       --------
  171 00000000         ;UART0_BDL
  172 00000000         ;26->7-0:SBR[7:0] (UART0CLK / [9600 * (OSR + 1)])
  173 00000000         ;UART0CLK is MCGPLLCLK/2
  174 00000000         ;MCGPLLCLK is 96 MHz
  175 00000000         ;MCGPLLCLK/2 is 48 MHz
  176 00000000         ;SBR = 48 MHz / (9600 * 16) = 312.5 --> 312 = 0x138
  177 00000000 00000038 
                       UART0_BDL_9600
                               EQU              0x38
  178 00000000         ;-------------------------------------------------------
                       --------
  179 00000000         ;UART0_C1
  180 00000000         ;0-->7:LOOPS=loops select (normal)
  181 00000000         ;0-->6:DOZEEN=doze enable (disabled)



ARM Macro Assembler    Page 6 Program Title for Listing Header Goes Here


  182 00000000         ;0-->5:RSRC=receiver source select (internal--no effect 
                       LOOPS=0)
  183 00000000         ;0-->4:M=9- or 8-bit mode select 
  184 00000000         ;        (1 start, 8 data [lsb first], 1 stop)
  185 00000000         ;0-->3:WAKE=receiver wakeup method select (idle)
  186 00000000         ;0-->2:IDLE=idle line type select (idle begins after sta
                       rt bit)
  187 00000000         ;0-->1:PE=parity enable (disabled)
  188 00000000         ;0-->0:PT=parity type (even parity--no effect PE=0)
  189 00000000 00000000 
                       UART0_C1_8N1
                               EQU              0x00
  190 00000000         ;-------------------------------------------------------
                       --------
  191 00000000         ;UART0_C2
  192 00000000         ;0-->7:TIE=transmit IE for TDRE (disabled)
  193 00000000         ;0-->6:TCIE=transmission complete IE for TC (disabled)
  194 00000000         ;0-->5:RIE=receiver IE for RDRF (disabled)
  195 00000000         ;0-->4:ILIE=idle line IE for IDLE (disabled)
  196 00000000         ;1-->3:TE=transmitter enable (enabled)
  197 00000000         ;1-->2:RE=receiver enable (enabled)
  198 00000000         ;0-->1:RWU=receiver wakeup control (normal)
  199 00000000         ;0-->0:SBK=send break (disabled, normal)
  200 00000000 0000000C 
                       UART0_C2_T_R
                               EQU              (UART0_C2_TE_MASK :OR: UART0_C2
_RE_MASK)
  201 00000000 0000002C 
                       UART0_C2_T_RI
                               EQU              (UART0_C2_RIE_MASK :OR: UART0_C
2_T_R)
  202 00000000 000000AC 
                       UART0_C2_TI_RI
                               EQU              (UART0_C2_TIE_MASK :OR: UART0_C
2_T_RI)
  203 00000000         ;-------------------------------------------------------
                       --------
  204 00000000         ;UART0_C3
  205 00000000         ;0-->7:R8T9=9th data bit for receiver (not used M=0)
  206 00000000         ;           10th data bit for transmitter (not used M10=
                       0)
  207 00000000         ;0-->6:R9T8=9th data bit for transmitter (not used M=0)
  208 00000000         ;           10th data bit for receiver (not used M10=0)
  209 00000000         ;0-->5:TXDIR=UART_TX pin direction in single-wire mode
  210 00000000         ;            (no effect LOOPS=0)
  211 00000000         ;0-->4:TXINV=transmit data inversion (not inverted)
  212 00000000         ;0-->3:ORIE=overrun IE for OR (disabled)
  213 00000000         ;0-->2:NEIE=noise error IE for NF (disabled)
  214 00000000         ;0-->1:FEIE=framing error IE for FE (disabled)
  215 00000000         ;0-->0:PEIE=parity error IE for PF (disabled)
  216 00000000 00000000 
                       UART0_C3_NO_TXINV
                               EQU              0x00
  217 00000000         ;-------------------------------------------------------
                       --------
  218 00000000         ;UART0_C4
  219 00000000         ;    0-->  7:MAEN1=match address mode enable 1 (disabled
                       )
  220 00000000         ;    0-->  6:MAEN2=match address mode enable 2 (disabled



ARM Macro Assembler    Page 7 Program Title for Listing Header Goes Here


                       )
  221 00000000         ;    0-->  5:M10=10-bit mode select (not selected)
  222 00000000         ;01111-->4-0:OSR=over sampling ratio (16)
  223 00000000         ;               = 1 + OSR for 3 <= OSR <= 31
  224 00000000         ;               = 16 for 0 <= OSR <= 2 (invalid values)
  225 00000000 0000000F 
                       UART0_C4_OSR_16
                               EQU              0x0F
  226 00000000 0000000F 
                       UART0_C4_NO_MATCH_OSR_16
                               EQU              UART0_C4_OSR_16
  227 00000000         ;-------------------------------------------------------
                       --------
  228 00000000         ;UART0_C5
  229 00000000         ;  0-->  7:TDMAE=transmitter DMA enable (disabled)
  230 00000000         ;  0-->  6:Reserved; read-only; always 0
  231 00000000         ;  0-->  5:RDMAE=receiver full DMA enable (disabled)
  232 00000000         ;000-->4-2:Reserved; read-only; always 0
  233 00000000         ;  0-->  1:BOTHEDGE=both edge sampling (rising edge only
                       )
  234 00000000         ;  0-->  0:RESYNCDIS=resynchronization disable (enabled)
                       
  235 00000000 00000000 
                       UART0_C5_NO_DMA_SSR_SYNC
                               EQU              0x00
  236 00000000         ;-------------------------------------------------------
                       --------
  237 00000000         ;UART0_S1
  238 00000000         ;0-->7:TDRE=transmit data register empty flag; read-only
                       
  239 00000000         ;0-->6:TC=transmission complete flag; read-only
  240 00000000         ;0-->5:RDRF=receive data register full flag; read-only
  241 00000000         ;1-->4:IDLE=idle line flag; write 1 to clear (clear)
  242 00000000         ;1-->3:OR=receiver overrun flag; write 1 to clear (clear
                       )
  243 00000000         ;1-->2:NF=noise flag; write 1 to clear (clear)
  244 00000000         ;1-->1:FE=framing error flag; write 1 to clear (clear)
  245 00000000         ;1-->0:PF=parity error flag; write 1 to clear (clear)
  250 00000000 0000001F 
                       UART0_S1_CLEAR_FLAGS
                               EQU              (UART0_S1_IDLE_MASK :OR:      
                        UART0_S1_OR_MASK :OR:                              UAR
T0_S1_NF_MASK :OR:                              UART0_S1_FE_MASK :OR:        
                      UART0_S1_PF_MASK)
  251 00000000         ;-------------------------------------------------------
                       --------
  252 00000000         ;UART0_S2
  253 00000000         ;1-->7:LBKDIF=LIN break detect interrupt flag (clear)
  254 00000000         ;             write 1 to clear
  255 00000000         ;1-->6:RXEDGIF=RxD pin active edge interrupt flag (clear
                       )
  256 00000000         ;              write 1 to clear
  257 00000000         ;0-->5:(reserved); read-only; always 0
  258 00000000         ;0-->4:RXINV=receive data inversion (disabled)
  259 00000000         ;0-->3:RWUID=receive wake-up idle detect
  260 00000000         ;0-->2:BRK13=break character generation length (10)
  261 00000000         ;0-->1:LBKDE=LIN break detect enable (disabled)
  262 00000000         ;0-->0:RAF=receiver active flag; read-only
  264 00000000 000000C0 



ARM Macro Assembler    Page 8 Program Title for Listing Header Goes Here


                       UART0_S2_NO_RXINV_BRK10_NO_LBKDETECT_CLEAR_FLAGS
                               EQU              (UART0_S2_LBKDIF_MASK :OR: UART
0_S2_RXEDGIF_MASK)
  265 00000000         ;-------------------------------------------------------
                       --------
  266 00000000 00000008 
                       POS_RED EQU              8
  267 00000000 00000009 
                       POS_GREEN
                               EQU              9
  268 00000000 0000000A 
                       POS_BLUE
                               EQU              10
  269 00000000 00000100 
                       PORTB_LED_RED_MASK
                               EQU              (1 << POS_RED)
  270 00000000 00000200 
                       PORTB_LED_GREEN_MASK
                               EQU              (1 << POS_GREEN)
  271 00000000 00000400 
                       PORTB_LED_BLUE_MASK
                               EQU              (1 << POS_BLUE)
  272 00000000         
  275 00000000 00000700 
                       PORTB_LEDS_MASK
                               EQU              (PORTB_LED_RED_MASK :OR:      
  PORTB_LED_GREEN_MASK :OR:        PORTB_LED_BLUE_MASK)
  276 00000000         
  277 00000000         ;Port B Pin 8: Red LED
  279 00000000 01000100 
                       PORT_PCR_SET_PTB8_GPIO
                               EQU              (PORT_PCR_ISF_MASK :OR:       
  PORT_PCR_MUX_SELECT_1_MASK)
  280 00000000         ;Port B Pin 9: Green LED
  282 00000000 01000100 
                       PORT_PCR_SET_PTB9_GPIO
                               EQU              (PORT_PCR_ISF_MASK :OR:       
  PORT_PCR_MUX_SELECT_1_MASK)
  283 00000000         ;Port B Pin 10: Blue LED
  285 00000000 01000100 
                       PORT_PCR_SET_PTB10_GPIO
                               EQU              (PORT_PCR_ISF_MASK :OR:       
   PORT_PCR_MUX_SELECT_1_MASK)
  286 00000000         
  287 00000000         ;-------------------------------------------------------
                       --------
  288 00000000                 MACRO
  289 00000000                 MOVC             $Value
  290 00000000         ;-------------------------------------------------------
                       --------
  291 00000000         ;Puts $Value in C bit of PSR
  292 00000000                 PUSH             {R0}
  293 00000000                 MOVS             R0,$Value
  294 00000000                 LSRS             R0,R0,#1
  295 00000000                 POP              {R0}
  296 00000000         ;-------------------------------------------------------
                       --------
  297 00000000                 MEND
  298 00000000         ;*******************************************************



ARM Macro Assembler    Page 9 Program Title for Listing Header Goes Here


                       *********
  299 00000000         ;Program
  300 00000000         ;Linker requires Reset_Handler
  301 00000000                 AREA             MyCode,CODE,READONLY
  302 00000000                 ENTRY
  303 00000000                 EXPORT           Reset_Handler
  304 00000000                 IMPORT           Startup
  305 00000000         
  306 00000000         ;Lab Exercise 7 main queue test command loop
  307 00000000                 IMPORT           QTest
  308 00000000         ;Lab Exercise 7 subroutines
  309 00000000                 IMPORT           Dequeue
  310 00000000                 IMPORT           Enqueue
  311 00000000                 IMPORT           InitQueue
  312 00000000                 IMPORT           PutNumHex
  313 00000000                 IMPORT           PutNumUB
  314 00000000         ;Lab Exercise 6 subroutines
  315 00000000         ;IMPORT  GetStringSB
  316 00000000                 IMPORT           PutNumU
  317 00000000         ;IMPORT  PutStringSB
  318 00000000         ;Lab Exercise 5 subroutines
  319 00000000         ;IMPORT  GetChar
  320 00000000                 IMPORT           Init_UART0_Polling
  321 00000000                 IMPORT           PutChar
  322 00000000                 IMPORT           GetChar
  323 00000000         ;Lab Exercise 4 subroutine
  324 00000000                 IMPORT           DIVU
  325 00000000         
  326 00000000         Reset_Handler
                               PROC             {}
  327 00000000         main
  328 00000000         ;-------------------------------------------------------
                       --------
  329 00000000         ;Mask interrupts
  330 00000000 B672            CPSID            I
  331 00000002         ;KL05 system startup with 48-MHz system clock
  332 00000002 F7FF FFFE       BL               Startup
  333 00000006         ;-------------------------------------------------------
                       --------
  334 00000006         ;>>>>> begin main program code <<<<<
  335 00000006         
  336 00000006 F7FF FFFE       BL               Init_UART0_Polling 
                                                            ;intialize polling
  337 0000000A         
  338 0000000A F7FF FFFE       BL               Init_UART0_IRQ
  339 0000000E F7FF FFFE       BL               Init_PIT_IRQ
  340 00000012         
  341 00000012 B662            CPSIE            I
  342 00000014         
  343 00000014 484D            LDR              R0, =Normal_Array 
                                                            ;Normal Array in R0
                                                            
  344 00000016 494E            LDR              R1, =Scramble_Array ;Scramble A
                                                            rray in R1
  345 00000018 F7FF FFFE       BL               Init_Array
  346 0000001C F7FF FFFE       BL               Init_LED
  347 00000020 F7FF FFFE       BL               All_Off
  348 00000024         
  349 00000024 21C8            MOVS             R1,#MAX_STRING



ARM Macro Assembler    Page 10 Program Title for Listing Header Goes Here


  350 00000026 484B            LDR              R0,=welcome_prompt ;printing a 
                                                            ton of promtps
  351 00000028 F7FF FFFE       BL               PutStringSB
  352 0000002C         
  353 0000002C F7FF FFFE       BL               Line_enter
  354 00000030         
  355 00000030 4849            LDR              R0,=directions_prompt_p1
  356 00000032 F7FF FFFE       BL               PutStringSB
  357 00000036         
  358 00000036 F7FF FFFE       BL               Line_enter
  359 0000003A         
  360 0000003A 4848            LDR              R0,=directions_prompt_p2
  361 0000003C F7FF FFFE       BL               PutStringSB
  362 00000040         
  363 00000040 F7FF FFFE       BL               Line_enter
  364 00000044         
  365 00000044 4846            LDR              R0,=directions_prompt_p3
  366 00000046 F7FF FFFE       BL               PutStringSB
  367 0000004A         
  368 0000004A F7FF FFFE       BL               Line_enter
  369 0000004E         
  370 0000004E 4845            LDR              R0,=good_luck
  371 00000050 F7FF FFFE       BL               PutStringSB
  372 00000054         
  373 00000054 F7FF FFFE       BL               Line_enter
  374 00000058         
  375 00000058 4843            LDR              R0, =dashed_lines
  376 0000005A F7FF FFFE       BL               PutStringSB
  377 0000005E         
  378 0000005E F7FF FFFE 
                       Loop    BL               Line_enter
  379 00000062         
  380 00000062 4842            LDR              R0, =Start_question ;gives opti
                                                            ons of Y, N, or H
  381 00000064 F7FF FFFE       BL               PutStringSB
  382 00000068         
  383 00000068 F7FF FFFE       BL               GetChar     ;gets the character
                                                             of the user
  384 0000006C F7FF FFFE       BL               PutChar
  385 00000070         
  386 00000070 F7FF FFFE       BL               Line_enter
  387 00000074         
  388 00000074         ;check values input
  389 00000074         
  390 00000074         ;Possible Values:
  391 00000074         ;D = Directions
  392 00000074         ;H = Help  
  393 00000074         
  394 00000074         ;E = End
  395 00000074         ;P = Play (goes back to beginning)
  396 00000074         
  397 00000074         ;Checks for lowercase
  398 00000074         
  399 00000074 2861            CMP              R0, #'a'
  400 00000076 D200            BHS              check_z
  401 00000078 E003            B                is_Lower
  402 0000007A         
  403 0000007A 287A    check_z CMP              R0, #'z'
  404 0000007C D900            BLS              convert_Upper



ARM Macro Assembler    Page 11 Program Title for Listing Header Goes Here


  405 0000007E E000            B                is_Lower
  406 00000080         
  407 00000080         convert_Upper
  408 00000080         
  409 00000080 3820            SUBS             R0, R0, #32 ;converts the lower
                                                            case value to upper
                                                            case
  410 00000082         
  411 00000082         is_Lower
  412 00000082         
  413 00000082         ;Check for Y or H
  414 00000082         
  415 00000082 2848    check_help
                               CMP              R0, #H_ascii
  416 00000084 D02A            BEQ              ask_help
  417 00000086 E7FF            B                check_yes
  418 00000088         
  419 00000088 2859    check_yes
                               CMP              R0, #Y_ascii
  420 0000008A D000            BEQ              ask_play
  421 0000008C E059            B                invalid
  422 0000008E         
  423 0000008E         
  424 0000008E 4930    ask_play
                               LDR              R1,=Scramble_Array
  425 00000090 4A2E            LDR              R2,=Normal_Array
  426 00000092         
  427 00000092 4E37            LDR              R6,=GAME_BUFFER
  428 00000094 2500            MOVS             R5, #0
  429 00000096 6035            STR              R5,[R6,#0]
  430 00000098         
  431 00000098 4F36            LDR              R7,=GAMES_PASSED
  432 0000009A 603D            STR              R5,[R7,#0]
  433 0000009C         
  434 0000009C F7FF FFFE       BL               All_Off
  435 000000A0         
  436 000000A0 4835            LDR              R0,=StopWatch ;make sure stopwa
                                                            tch is off
  437 000000A2 2100            MOVS             R1, #0
  438 000000A4 6001            STR              R1, [R0, #0]
  439 000000A6         
  440 000000A6 4B35            LDR              R3, =Count
  441 000000A8 6019            STR              R1, [R3, #0] ;make sure count i
                                                            s zero
  442 000000AA         
  443 000000AA 2301            MOVS             R3, #1
  444 000000AC 6003            STR              R3, [R0, #0] ;start the stopwat
                                                            ch
  445 000000AE         
  446 000000AE F7FF FFFE       BL               Play_Game
  447 000000B2         
  448 000000B2 2100            MOVS             R1, #0      ;stop the stopwatch
                                                            
  449 000000B4 4830            LDR              R0, =StopWatch
  450 000000B6 6001            STR              R1, [R0, #0]
  451 000000B8         
  452 000000B8 F7FF FFFE       BL               Blue_On
  453 000000BC         
  454 000000BC 4830            LDR              R0,=end_game



ARM Macro Assembler    Page 12 Program Title for Listing Header Goes Here


  455 000000BE F7FF FFFE       BL               PutStringSB
  456 000000C2         
  457 000000C2 F7FF FFFE       BL               Line_enter
  458 000000C6 482F            LDR              R0,=time
  459 000000C8 F7FF FFFE       BL               PutStringSB
  460 000000CC         
  461 000000CC 482B            LDR              R0, =Count
  462 000000CE 6800            LDR              R0, [R0,#0]
  463 000000D0 F7FF FFFE       BL               PutNumU
  464 000000D4         
  465 000000D4 482C            LDR              R0,=seconds
  466 000000D6 F7FF FFFE       BL               PutStringSB
  467 000000DA         
  468 000000DA E7C0            B                Loop
  469 000000DC         
  470 000000DC 482B    ask_help
                               LDR              R0,=help_prompt
  471 000000DE F7FF FFFE       BL               PutStringSB
  472 000000E2 F7FF FFFE       BL               GetChar
  473 000000E6 F7FF FFFE       BL               PutChar
  474 000000EA         
  475 000000EA 2861            CMP              R0, #'a'
  476 000000EC D200            BHS              check_other
  477 000000EE E003            B                lower
  478 000000F0         
  479 000000F0 287A    check_other
                               CMP              R0, #'z'
  480 000000F2 D900            BLS              upper
  481 000000F4 E000            B                lower
  482 000000F6         
  483 000000F6         upper
  484 000000F6         
  485 000000F6 3820            SUBS             R0, R0, #32 ;converts the lower
                                                            case value to upper
                                                            case
  486 000000F8         
  487 000000F8         lower
  488 000000F8         
  489 000000F8 F7FF FFFE       BL               Line_enter
  490 000000FC         
  491 000000FC         ;Check for help characters
  492 000000FC         
  493 000000FC 2844    check_D CMP              R0, #D_ascii
  494 000000FE D10F            BNE              check_H
  495 00000100         
  496 00000100 4815            LDR              R0,=directions_prompt_p1
  497 00000102 F7FF FFFE       BL               PutStringSB
  498 00000106         
  499 00000106 F7FF FFFE       BL               Line_enter
  500 0000010A         
  501 0000010A 4814            LDR              R0,=directions_prompt_p2
  502 0000010C F7FF FFFE       BL               PutStringSB
  503 00000110         
  504 00000110 F7FF FFFE       BL               Line_enter
  505 00000114         
  506 00000114 4812            LDR              R0,=directions_prompt_p3
  507 00000116 F7FF FFFE       BL               PutStringSB
  508 0000011A         
  509 0000011A F7FF FFFE       BL               Line_enter



ARM Macro Assembler    Page 13 Program Title for Listing Header Goes Here


  510 0000011E E79E            B                Loop
  511 00000120         
  512 00000120 2848    check_H CMP              R0, #H_ascii
  513 00000122 D105            BNE              check_E
  514 00000124         
  515 00000124 4819            LDR              R0,=help_prompt
  516 00000126 F7FF FFFE       BL               PutStringSB
  517 0000012A         
  518 0000012A F7FF FFFE       BL               Line_enter
  519 0000012E E796            B                Loop
  520 00000130         
  521 00000130 2845    check_E CMP              R0, #E_ascii
  522 00000132 D103            BNE              check_P
  523 00000134         
  524 00000134 4816            LDR              R0, =goodbye
  525 00000136 F7FF FFFE       BL               PutStringSB
  526 0000013A         
  527 0000013A E006            B                end_of_program
  528 0000013C         
  529 0000013C 2850    check_P CMP              R0, #P_ascii
  530 0000013E D100            BNE              invalid
  531 00000140         
  532 00000140         ;goes back to the beginning
  533 00000140 E78D            B                Loop
  534 00000142         
  535 00000142         invalid
  536 00000142 4814            LDR              R0, =invalid_character
  537 00000144 F7FF FFFE       BL               PutStringSB
  538 00000148         
  539 00000148 E789            B                Loop
  540 0000014A         
  541 0000014A         
  542 0000014A         
  543 0000014A         ;after checking each value, the user will be taken to wh
                       ere
  544 0000014A         ;they wanted to go
  545 0000014A         
  546 0000014A         ;Playing the game: There will be a time limit for the us
                       er
  547 0000014A         ;to properly guess the regular word. 
  548 0000014A         ;If the the time runs out, the user loses the game and t
                       he LED
  549 0000014A         ;will turn red and they will be shown the losing screen"
                       
  550 0000014A         
  551 0000014A         
  552 0000014A         
  553 0000014A         ;>>>>>   end main program code <<<<<
  554 0000014A         ;Stay here
  555 0000014A         end_of_program
  556 0000014A E7FE            B                .
  557 0000014C 00000000 
              00000000 
              00000000 
              00000000 
              00000000 
              00000000 
              00000000 
              00000000 



ARM Macro Assembler    Page 14 Program Title for Listing Header Goes Here


              00000000 
              00000000 
              00000000 
              00000000 
              00000000 
              00000000 
              00000000 
              00000000 
              00000000 
              00000000 
              00000000 
              00000000 
              00000000 
              00000000 
              00000000 
              00000000 
              00000000 
              00000000 
              00000000         LTORG
  558 000001B8                 ENDP
  559 000001B8         ;>>>>> begin subroutine code <<<<<
  560 000001B8         
  561 000001B8         Init_Array
                               PROC             {R2-R14}
  562 000001B8         ;Initializes two arrays, the Normal and Scramble Arrays.
                        
  563 000001B8         ;Inputs: 
  564 000001B8         ;   R0 = Normal Array Address
  565 000001B8         ;       R1 = Scramble Array Address
  566 000001B8         ;Outputs: None
  567 000001B8         
  568 000001B8 B50F            PUSH{R0-R3,LR}
  569 000001BA 2300            MOVS             R3, #0      ;initialize counter
                                                            
  570 000001BC         ;is moved manually
  571 000001BC         
  572 000001BC 4A0E            LDR              R2,=hello_normal
  573 000001BE 50C2            STR              R2, [R0, R3] ;store the normal 
                                                            word into the norma
                                                            l array
  574 000001C0 4A0E            LDR              R2,=hello_scramble
  575 000001C2 50CA            STR              R2, [R1, R3] ;store the scrambl
                                                            e word into the scr
                                                            amble array
  576 000001C4 1D1B            ADDS             R3, R3, #4  ;increment the coun
                                                            ter
  577 000001C6         
  578 000001C6 4A0E            LDR              R2,=tiger_normal
  579 000001C8 50C2            STR              R2, [R0, R3]
  580 000001CA 4A0E            LDR              R2,=tiger_scramble
  581 000001CC 50CA            STR              R2, [R1, R3]
  582 000001CE 1D1B            ADDS             R3, R3, #4  ;increment
  583 000001D0         
  584 000001D0         ;Start of medium mode
  585 000001D0         ;Coutner, R3 = 2
  586 000001D0         
  587 000001D0 4A0D            LDR              R2,=matcha_normal
  588 000001D2 50C2            STR              R2, [R0, R3]
  589 000001D4 4A0D            LDR              R2,=matcha_scramble



ARM Macro Assembler    Page 15 Program Title for Listing Header Goes Here


  590 000001D6 50CA            STR              R2, [R1, R3]
  591 000001D8 1D1B            ADDS             R3, R3, #4  ;increment
  592 000001DA         
  593 000001DA 4A0D            LDR              R2,=french_normal
  594 000001DC 50C2            STR              R2, [R0, R3]
  595 000001DE 4A0D            LDR              R2,=french_scramble
  596 000001E0 50CA            STR              R2, [R1, R3]
  597 000001E2 1D1B            ADDS             R3, R3, #4  ;increment
  598 000001E4         
  599 000001E4         ;Start of hard mode
  600 000001E4         ;Counter, R3 = 4
  601 000001E4         
  602 000001E4 4A0C            LDR              R2,=accessory_normal
  603 000001E6 50C2            STR              R2, [R0, R3]
  604 000001E8 4A0C            LDR              R2,=accessory_scramble
  605 000001EA 50CA            STR              R2, [R1, R3]
  606 000001EC 1D1B            ADDS             R3, R3, #4  ;increment
  607 000001EE         
  608 000001EE 4A0C            LDR              R2,=pistachio_normal
  609 000001F0 50C2            STR              R2, [R0, R3]
  610 000001F2 4A0C            LDR              R2,=pistachio_scramble
  611 000001F4 50CA            STR              R2, [R1, R3]
  612 000001F6         
  613 000001F6 BD0F            POP{R0-R3,       PC}
  614 000001F8                 ENDP
  615 000001F8 00000000 
              00000000 
              00000000 
              00000000 
              00000000 
              00000000 
              00000000 
              00000000 
              00000000 
              00000000 
              00000000 
              00000000         LTORG
  616 00000228         
  617 00000228         Init_LED
                               PROC             {R2-R14}
  618 00000228         ;Enable clock for PORT B module and configure the pin co
                       nnections
  619 00000228 B50E            PUSH{R1-R3,LR}
  620 0000022A         
  621 0000022A         ;Enable PORT B
  622 0000022A 4919            LDR              R1,=SIM_SCGC5
  623 0000022C 4A19            LDR              R2,=(SIM_SCGC5_PORTB_MASK)
  624 0000022E 680B            LDR              R3,[R1,#0]
  625 00000230 4313            ORRS             R3,R3,R2
  626 00000232 600B            STR              R3,[R1,#0]
  627 00000234         
  628 00000234         ;Configure pin connections
  629 00000234         
  630 00000234 4918            LDR              R1,=PORTB_BASE
  631 00000236         ;Select PORT B Pin 8 for GPIO to red LED
  632 00000236 4A19            LDR              R2,=PORT_PCR_SET_PTB8_GPIO
  633 00000238 620A            STR              R2,[R1,#PORTB_PCR8_OFFSET]
  634 0000023A         ;Select PORT B Pin 9 for GPIO to green LED
  635 0000023A 4A18            LDR              R2,=PORT_PCR_SET_PTB9_GPIO



ARM Macro Assembler    Page 16 Program Title for Listing Header Goes Here


  636 0000023C 624A            STR              R2,[R1,#PORTB_PCR9_OFFSET]
  637 0000023E         ;Select PORT B Pin 10 for GPIO to blue LED
  638 0000023E 4A17            LDR              R2,=PORT_PCR_SET_PTB10_GPIO
  639 00000240 628A            STR              R2,[R1,#PORTB_PCR10_OFFSET]
  640 00000242         
  641 00000242 4917            LDR              R1,=FGPIOB_BASE
  642 00000244 4A17            LDR              R2,=PORTB_LEDS_MASK
  643 00000246 614A            STR              R2,[R1,#GPIO_PDDR_OFFSET]
  644 00000248         
  645 00000248 BD0E            POP{R1-R3,PC}
  646 0000024A                 ENDP
  647 0000024A         
  648 0000024A         All_Off PROC             {R2-R14}
  649 0000024A         ;Turn all the LEDs OFF
  650 0000024A B50E            PUSH{R1-R3,LR}
  651 0000024C         
  652 0000024C 4914            LDR              R1,=FGPIOB_BASE
  653 0000024E         ;Turn off red LED
  654 0000024E 4A16            LDR              R2,=PORTB_LED_RED_MASK
  655 00000250 604A            STR              R2,[R1,#GPIO_PSOR_OFFSET]
  656 00000252         ;Turn off green LED
  657 00000252 4A16            LDR              R2,=PORTB_LED_GREEN_MASK
  658 00000254 604A            STR              R2,[R1,#GPIO_PSOR_OFFSET]
  659 00000256         ;Turn off blue LED
  660 00000256 4A0F            LDR              R2,=PORTB_LED_BLUE_MASK
  661 00000258 604A            STR              R2,[R1,#GPIO_PSOR_OFFSET]
  662 0000025A         
  663 0000025A BD0E            POP{R1-R3,PC}
  664 0000025C                 ENDP
  665 0000025C         
  666 0000025C         Red_On  PROC             {R2-R14}
  667 0000025C         ;Turn only the RED LED on
  668 0000025C B50E            PUSH{R1-R3,LR}
  669 0000025E         
  670 0000025E 4910            LDR              R1,=FGPIOB_BASE
  671 00000260         
  672 00000260 4A11            LDR              R2,=PORTB_LED_RED_MASK
  673 00000262 608A            STR              R2,[R1,#GPIO_PCOR_OFFSET]
  674 00000264         
  675 00000264 BD0E            POP{R1-R3,PC}
  676 00000266                 ENDP
  677 00000266         
  678 00000266         Green_On
                               PROC             {R2-R14}
  679 00000266         ;Turn only the GREEN LED on  
  680 00000266 B50E            PUSH{R1-R3,LR}
  681 00000268         
  682 00000268 490D            LDR              R1,=FGPIOB_BASE
  683 0000026A         
  684 0000026A 4A10            LDR              R2,=PORTB_LED_GREEN_MASK
  685 0000026C 608A            STR              R2,[R1,#GPIO_PCOR_OFFSET]
  686 0000026E         
  687 0000026E BD0E            POP{R1-R3,PC}
  688 00000270                 ENDP
  689 00000270         
  690 00000270         Blue_On PROC             {R2-R14}
  691 00000270         ;Turn only the GREEN LED on  
  692 00000270 B50E            PUSH{R1-R3,LR}
  693 00000272         



ARM Macro Assembler    Page 17 Program Title for Listing Header Goes Here


  694 00000272 490B            LDR              R1,=FGPIOB_BASE
  695 00000274         
  696 00000274 4A07            LDR              R2,=PORTB_LED_BLUE_MASK
  697 00000276 608A            STR              R2,[R1,#GPIO_PCOR_OFFSET]
  698 00000278         
  699 00000278 BD0E            POP{R1-R3,PC}
  700 0000027A                 ENDP
  701 0000027A         
  702 0000027A         Toggle_Green
                               PROC             {R2-R14}
  703 0000027A         ;Toggle the Green LED
  704 0000027A B50E            PUSH{R1-R3,LR}
  705 0000027C         
  706 0000027C 4908            LDR              R1,=FGPIOB_BASE
  707 0000027E         
  708 0000027E 4A0B            LDR              R2,=PORTB_LED_GREEN_MASK
  709 00000280 60CA            STR              R2,[R1,#GPIO_PTOR_OFFSET]
  710 00000282         
  711 00000282 BD0E            POP{R1-R3,PC}
  712 00000284                 ENDP
  713 00000284         
  714 00000284         Toggle_Red
                               PROC             {R2-R14}
  715 00000284         ;Toggle the RED LED 
  716 00000284 B50E            PUSH{R1-R3,LR}
  717 00000286         
  718 00000286 4906            LDR              R1,=FGPIOB_BASE
  719 00000288         
  720 00000288 4A07            LDR              R2,=PORTB_LED_RED_MASK
  721 0000028A 60CA            STR              R2,[R1,#GPIO_PTOR_OFFSET]
  722 0000028C         
  723 0000028C BD0E            POP{R1-R3,PC}
  724 0000028E                 ENDP
  725 0000028E         
  726 0000028E 00 00 40048038 
              00000400 
              4004A000 
              01000100 
              F80FF040 
              00000700 
              00000100 
              00000200         LTORG
  727 000002B0         Play_Game
                               PROC             {R2-R14}
  728 000002B0         ;Gets the scrambled word first depending on the GAME_BUF
                       FER
  729 000002B0         ;Displays messages telling the user what mode they're on
                        (hard,medium,easy)
  730 000002B0         ;Keeps the score
  731 000002B0         ;Has the timer and the LED functionality
  732 000002B0         ;Inputs:
  733 000002B0         ;  R1 = Scamble Array
  734 000002B0         ;  R2 = Normal Array
  735 000002B0         
  736 000002B0         
  737 000002B0 B5FF            PUSH{R0-R7,LR}
  738 000002B2         
  739 000002B2         ;beginning of Round 1, Easy loop
  740 000002B2         



ARM Macro Assembler    Page 18 Program Title for Listing Header Goes Here


  741 000002B2 48EE            LDR              R0,=round_one ;loads round 1 pr
                                                            ompt
  742 000002B4 F7FF FFFE       BL               PutStringSB ;prints round 1 pro
                                                            mpt
  743 000002B8         
  744 000002B8 F7FF FFFE       BL               Line_enter  ;enter
  745 000002BC         
  746 000002BC 4FEC            LDR              R7,=GAME_BUFFER ;loads the addr
                                                            ess of GAME_BUFFER
  747 000002BE 683F            LDR              R7,[R7, #0] ;loads the contents
                                                             of GAME_BUFFER int
                                                            o R7
  748 000002C0         
  749 000002C0 4BEC            LDR              R3,=GAMES_PASSED ;loads the add
                                                            ress of the GAMES_P
                                                            ASSED
  750 000002C2 681B            LDR              R3,[R3,#0]  ;loads the contents
                                                             of the GAMES_PASSE
                                                            D into R3
  751 000002C4         
  752 000002C4 2B02    top_loop
                               CMP              R3, #2      ;checks the number 
                                                            of games passed
  753 000002C6 D040            BEQ              round2      ;goes to another lo
                                                            op for round 2
  754 000002C8         
  755 000002C8 49EB            LDR              R1,=Scramble_Array ;reloads the
                                                             adddresses because
                                                             they get changed f
                                                            or GetString
  756 000002CA 4AEC            LDR              R2,=Normal_Array
  757 000002CC         
  758 000002CC F7FF FFFE       BL               Line_enter  ;enter
  759 000002D0         
  760 000002D0         try_again
  761 000002D0         
  762 000002D0 49E9            LDR              R1,=Scramble_Array ;reloads the
                                                             adddresses because
                                                             they get changed f
                                                            or GetString
  763 000002D2 4AEA            LDR              R2,=Normal_Array
  764 000002D4         
  765 000002D4 F7FF FFFE       BL               Line_enter
  766 000002D8         
  767 000002D8 203E            MOVS             R0,#'>'     ;helps denote what 
                                                            the actual word is
  768 000002DA F7FF FFFE       BL               PutChar
  769 000002DE         
  770 000002DE 59CC            LDR              R4,[R1, R7] ;gets the word at t
                                                            he offset of the ga
                                                            me buffer from the 
                                                            scramble array
  771 000002E0 0020            MOVS             R0, R4      ;makes a copy of th
                                                            e scrambled word
  772 000002E2 F7FF FFFE       BL               PutStringSB ;prints the string 
                                                            to the terminal
  773 000002E6         
  774 000002E6 F7FF FFFE       BL               Line_enter
  775 000002EA         



ARM Macro Assembler    Page 19 Program Title for Listing Header Goes Here


  776 000002EA 2106            MOVS             R1, #MAX_EAS ;length of all eas
                                                            y words
  777 000002EC 4AE4            LDR              R2,=STRING
  778 000002EE F7FF FFFE       BL               GetStringSB
  779 000002F2         
  780 000002F2 F7FF FFFE       BL               Comparator  ;compare the two st
                                                            rings
  781 000002F6 D217            BCS              wrong_answer
  782 000002F8         
  783 000002F8         ;BL  Red_On
  784 000002F8         
  785 000002F8 49E4            LDR              R1,=FGPIOB_BASE
  786 000002FA 6809            LDR              R1,[R1,#GPIO_PDOR_OFFSET]
  787 000002FC 4AE4            LDR              R2,=PORTB_LEDS_MASK
  788 000002FE 4DE5            LDR              R5,=PORTB_LED_RED_MASK
  789 00000300 4029            ANDS             R1, R1, R5  ;R1 is only red led
                                                            
  790 00000302 2900            CMP              R1,#0       ;if the LED is on (
                                                            0) then branch and 
                                                            toggle
  791 00000304 D101            BNE              green_only
  792 00000306         
  793 00000306 F7FF FFFE       BL               Toggle_Red
  794 0000030A         
  795 0000030A F7FF FFFE 
                       green_only
                               BL               Green_On
  796 0000030E F7FF FFFE       BL               Line_enter
  797 00000312 48DC            LDR              R0, =correct ;prints correct to
                                                             the terminal
  798 00000314 21C8            MOVS             R1, #MAX_STRING
  799 00000316 F7FF FFFE       BL               PutStringSB
  800 0000031A         
  801 0000031A 1C5B            ADDS             R3, R3, #1  ;increment the numb
                                                            er of games passed
  802 0000031C 4ED5            LDR              R6,=GAMES_PASSED
  803 0000031E 6033            STR              R3,[R6,#0]
  804 00000320         
  805 00000320 1D3F            ADDS             R7, R7, #4  ;increment the game
                                                             buffer to get anot
                                                            her scramble word
  806 00000322 4DD3            LDR              R5,=GAME_BUFFER
  807 00000324 602F            STR              R7,[R5,#0]
  808 00000326         
  809 00000326 E7CD            B                top_loop    ;branches to the to
                                                            p of the loop
  810 00000328         
  811 00000328         wrong_answer
  812 00000328 49D8            LDR              R1,=FGPIOB_BASE
  813 0000032A 6809            LDR              R1,[R1,#GPIO_PDOR_OFFSET]
  814 0000032C 4AD8            LDR              R2,=PORTB_LEDS_MASK
  815 0000032E 4DDD            LDR              R5,=PORTB_LED_GREEN_MASK
  816 00000330 4029            ANDS             R1, R1, R5  ;R1 is only red led
                                                            
  817 00000332 2900            CMP              R1,#0       ;if the LED is on (
                                                            0) then branch and 
                                                            toggle
  818 00000334 D101            BNE              red_only
  819 00000336         



ARM Macro Assembler    Page 20 Program Title for Listing Header Goes Here


  820 00000336 F7FF FFFE       BL               Toggle_Green
  821 0000033A         
  822 0000033A F7FF FFFE 
                       red_only
                               BL               Red_On
  823 0000033E         
  824 0000033E F7FF FFFE       BL               Line_enter
  825 00000342 48D1            LDR              R0,=incorrect ;prints incorrect
                                                             to the terminal
  826 00000344 F7FF FFFE       BL               PutStringSB
  827 00000348         
  828 00000348 E7C2            B                try_again   ;branches to the to
                                                            p but skips round 1
                                                             prompt
  829 0000034A         
  830 0000034A         ;-------------------------------------------------------
                       -------------------------------------------
  831 0000034A         ;Beginning of Round 2, Medium loops  
  832 0000034A         
  833 0000034A F7FF FFFE 
                       round2  BL               Line_enter
  834 0000034E         
  835 0000034E 48D2            LDR              R0,=round_two
  836 00000350 F7FF FFFE       BL               PutStringSB
  837 00000354         
  838 00000354 4BC7            LDR              R3,=GAMES_PASSED
  839 00000356 681B            LDR              R3,[R3,#0]
  840 00000358         
  841 00000358         mid_loop                             ;MOVS R3, #GAME_BUF
                                                            FER  ;load the game
                                                             buffer
  842 00000358 2B04            CMP              R3, #4      ;checks the number 
                                                            of games passed
  843 0000035A D042            BEQ              round3      ;goes to round 3
  844 0000035C         
  845 0000035C 49C6            LDR              R1,=Scramble_Array ;reloads the
                                                             adddresses because
                                                             they get changed f
                                                            or GetString
  846 0000035E 4AC7            LDR              R2,=Normal_Array
  847 00000360         
  848 00000360 F7FF FFFE       BL               Line_enter  ;enter
  849 00000364         
  850 00000364 49C4    try_medium
                               LDR              R1,=Scramble_Array ;reloads the
                                                             adddresses because
                                                             they get changed f
                                                            or GetString
  851 00000366 4AC5            LDR              R2,=Normal_Array
  852 00000368         
  853 00000368 F7FF FFFE       BL               Line_enter
  854 0000036C         
  855 0000036C 203E            MOVS             R0,#'>'     ;helps denote what 
                                                            the actual word is
  856 0000036E F7FF FFFE       BL               PutChar
  857 00000372         
  858 00000372 59CC            LDR              R4, [R1, R7] ;gets the word at 
                                                            the offset of the g
                                                            ame buffer from the



ARM Macro Assembler    Page 21 Program Title for Listing Header Goes Here


                                                             scramble array
  859 00000374 0020            MOVS             R0, R4      ;makes a copy of th
                                                            e scrambled word
  860 00000376 F7FF FFFE       BL               PutStringSB ;prints the string 
                                                            to the terminal
  861 0000037A         
  862 0000037A F7FF FFFE       BL               Line_enter
  863 0000037E         
  864 0000037E 2407            MOVS             R4, #MAX_MED ;length of all eas
                                                            y words
  865 00000380 4ABF            LDR              R2,=STRING
  866 00000382 F7FF FFFE       BL               GetStringSB
  867 00000386         
  868 00000386 F7FF FFFE       BL               Comparator
  869 0000038A D219            BCS              wrong_medium
  870 0000038C         
  871 0000038C 49BF            LDR              R1,=FGPIOB_BASE
  872 0000038E 6809            LDR              R1,[R1,#GPIO_PDOR_OFFSET]
  873 00000390 4ABF            LDR              R2,=PORTB_LEDS_MASK
  874 00000392 4DC0            LDR              R5,=PORTB_LED_RED_MASK
  875 00000394 4029            ANDS             R1, R1, R5  ;R1 is only red led
                                                            
  876 00000396 2900            CMP              R1,#0       ;if the LED is on (
                                                            0) then branch and 
                                                            toggle
  877 00000398 D101            BNE              green_med
  878 0000039A         
  879 0000039A F7FF FFFE       BL               Toggle_Red
  880 0000039E         
  881 0000039E F7FF FFFE 
                       green_med
                               BL               Green_On
  882 000003A2 F7FF FFFE       BL               Line_enter
  883 000003A6 48B7            LDR              R0, =correct ;prints correct to
                                                             the terminal
  884 000003A8 21C8            MOVS             R1, #MAX_STRING
  885 000003AA F7FF FFFE       BL               PutStringSB
  886 000003AE         
  887 000003AE F7FF FFFE       BL               Line_enter
  888 000003B2         
  889 000003B2 1C5B            ADDS             R3, R3, #1  ;increment the numb
                                                            er of games passed
  890 000003B4 4EAF            LDR              R6,=GAMES_PASSED
  891 000003B6 6033            STR              R3,[R6,#0]
  892 000003B8         
  893 000003B8 1D3F            ADDS             R7, R7, #4  ;increment the game
                                                             buffer to get anot
                                                            her scramble word
  894 000003BA 4DAD            LDR              R5,=GAME_BUFFER
  895 000003BC 602F            STR              R7,[R5,#0]
  896 000003BE         
  897 000003BE E7CB            B                mid_loop
  898 000003C0         
  899 000003C0         wrong_medium
  900 000003C0 49B2            LDR              R1,=FGPIOB_BASE
  901 000003C2 6809            LDR              R1,[R1,#GPIO_PDOR_OFFSET]
  902 000003C4 4AB2            LDR              R2,=PORTB_LEDS_MASK
  903 000003C6 4DB7            LDR              R5,=PORTB_LED_GREEN_MASK
  904 000003C8 4029            ANDS             R1, R1, R5  ;R1 is only red led



ARM Macro Assembler    Page 22 Program Title for Listing Header Goes Here


                                                            
  905 000003CA 2900            CMP              R1,#0       ;if the LED is on (
                                                            0) then branch and 
                                                            toggle
  906 000003CC D101            BNE              red_med
  907 000003CE         
  908 000003CE F7FF FFFE       BL               Toggle_Green
  909 000003D2         
  910 000003D2 F7FF FFFE 
                       red_med BL               Red_On
  911 000003D6 F7FF FFFE       BL               Line_enter
  912 000003DA 48AB            LDR              R0,=incorrect ;prints incorrect
                                                             to the terminal
  913 000003DC F7FF FFFE       BL               PutStringSB
  914 000003E0         
  915 000003E0 E7C0            B                try_medium  ;branches to the to
                                                            p but skips round 1
                                                             prompt
  916 000003E2         
  917 000003E2         ;-------------------------------------------------------
                       ----------------------------------------
  918 000003E2         ;Beginning of Round 3, Hard loops    
  919 000003E2 49A5    round3  LDR              R1,=Scramble_Array ;reloads the
                                                             adddresses because
                                                             they get changed f
                                                            or GetString
  920 000003E4 4AA5            LDR              R2,=Normal_Array
  921 000003E6         
  922 000003E6 F7FF FFFE       BL               Line_enter
  923 000003EA         
  924 000003EA 48AC            LDR              R0,=round_three
  925 000003EC F7FF FFFE       BL               PutStringSB
  926 000003F0         
  927 000003F0 F7FF FFFE       BL               Line_enter  ;enter
  928 000003F4         
  929 000003F4         bot_loop                             ;MOVS R3, #GAME_BUF
                                                            FER  ;load the game
                                                             buffer
  930 000003F4 2B06            CMP              R3, #6      ;checks the number 
                                                            of games passed
  931 000003F6 D040            BEQ              endof_game
  932 000003F8         
  933 000003F8 499F    try_hard
                               LDR              R1,=Scramble_Array ;reloads the
                                                             adddresses because
                                                             they get changed f
                                                            or GetString
  934 000003FA 4AA0            LDR              R2,=Normal_Array
  935 000003FC         
  936 000003FC 203E            MOVS             R0,#'>'     ;helps denote what 
                                                            the actual word is
  937 000003FE F7FF FFFE       BL               PutChar
  938 00000402         
  939 00000402 59CC            LDR              R4, [R1, R7] ;gets the word at 
                                                            the offset of the g
                                                            ame buffer from the
                                                             scramble array
  940 00000404 0020            MOVS             R0, R4      ;makes a copy of th
                                                            e scrambled word



ARM Macro Assembler    Page 23 Program Title for Listing Header Goes Here


  941 00000406 F7FF FFFE       BL               PutStringSB ;prints the string 
                                                            to the terminal
  942 0000040A         
  943 0000040A F7FF FFFE       BL               Line_enter
  944 0000040E         
  945 0000040E 240A            MOVS             R4, #MAX_HAR ;length of all eas
                                                            y words
  946 00000410 4A9B            LDR              R2,=STRING
  947 00000412 F7FF FFFE       BL               GetStringSB
  948 00000416         
  949 00000416 F7FF FFFE       BL               Comparator  ;compare the two st
                                                            rings
  950 0000041A D21B            BCS              wrong_hard
  951 0000041C         
  952 0000041C 499B            LDR              R1,=FGPIOB_BASE
  953 0000041E 6809            LDR              R1,[R1,#GPIO_PDOR_OFFSET]
  954 00000420 4A9B            LDR              R2,=PORTB_LEDS_MASK
  955 00000422 4D9C            LDR              R5,=PORTB_LED_RED_MASK
  956 00000424 4029            ANDS             R1, R1, R5  ;R1 is only red led
                                                            
  957 00000426 2900            CMP              R1,#0       ;if the LED is on (
                                                            0) then branch and 
                                                            toggle
  958 00000428 D101            BNE              green_hard
  959 0000042A         
  960 0000042A F7FF FFFE       BL               Toggle_Red
  961 0000042E         
  962 0000042E F7FF FFFE 
                       green_hard
                               BL               Green_On
  963 00000432 F7FF FFFE       BL               Line_enter
  964 00000436 4893            LDR              R0, =correct ;prints correct to
                                                             the terminal
  965 00000438 21C8            MOVS             R1, #MAX_STRING
  966 0000043A F7FF FFFE       BL               PutStringSB
  967 0000043E         
  968 0000043E F7FF FFFE       BL               Line_enter
  969 00000442         
  970 00000442 1C5B            ADDS             R3, R3, #1  ;increment the numb
                                                            er of games passed
  971 00000444 4E8B            LDR              R6,=GAMES_PASSED
  972 00000446 6033            STR              R3,[R6,#0]
  973 00000448         
  974 00000448 1D3F            ADDS             R7, R7, #4  ;increment the game
                                                             buffer to get anot
                                                            her scramble word
  975 0000044A 4D89            LDR              R5,=GAME_BUFFER
  976 0000044C 602F            STR              R7,[R5,#0]
  977 0000044E         
  978 0000044E E7D1            B                bot_loop
  979 00000450 F7FF FFFE       BL               Line_enter
  980 00000454         
  981 00000454         wrong_hard
  982 00000454 498D            LDR              R1,=FGPIOB_BASE
  983 00000456 6809            LDR              R1,[R1,#GPIO_PDOR_OFFSET]
  984 00000458 4A8D            LDR              R2,=PORTB_LEDS_MASK
  985 0000045A 4D92            LDR              R5,=PORTB_LED_GREEN_MASK
  986 0000045C 4029            ANDS             R1, R1, R5  ;R1 is only red led
                                                            



ARM Macro Assembler    Page 24 Program Title for Listing Header Goes Here


  987 0000045E 2900            CMP              R1,#0       ;if the LED is on (
                                                            0) then branch and 
                                                            toggle
  988 00000460 D101            BNE              red_hard
  989 00000462         
  990 00000462 F7FF FFFE       BL               Toggle_Green
  991 00000466         
  992 00000466 F7FF FFFE 
                       red_hard
                               BL               Red_On
  993 0000046A         
  994 0000046A F7FF FFFE       BL               Line_enter
  995 0000046E 4886            LDR              R0,=incorrect ;prints incorrect
                                                             to the terminal
  996 00000470 F7FF FFFE       BL               PutStringSB
  997 00000474 F7FF FFFE       BL               Line_enter
  998 00000478 E7BE            B                try_hard
  999 0000047A         
 1000 0000047A         endof_game
 1001 0000047A         
 1002 0000047A BDFF            POP{R0-R7,PC}
 1003 0000047C                 ENDP
 1004 0000047C         
 1005 0000047C         Scramblizer
                               PROC             {R2-R14}
 1006 0000047C         ;TODO: Word scrambling function.
 1007 0000047C         ;Using some randomizing, the subroutine will be called f
                       or every
 1008 0000047C         ;unscrambled word currently in the array. The subroutine
                        will check
 1009 0000047C         ;if the new scrambled word is the same as the original a
                       nd if it is 
 1010 0000047C         ;it will scramble and rearrange the letter indexes again
                        until the
 1011 0000047C         ;word is sufficiently scrambled.
 1012 0000047C         
 1013 0000047C                 ENDP
 1014 0000047C         
 1015 0000047C         Comparator
                               PROC             {R2-R14}
 1016 0000047C         ;Compares the normal string and the string entererd by t
                       he user
 1017 0000047C         ;Inputs: 
 1018 0000047C         ;  R1 = User input
 1019 0000047C         ;  R2 = Normal_Array
 1020 0000047C         ;       R4 = SIZE
 1021 0000047C         ;Outputs
 1022 0000047C         ;C Bit:
 1023 0000047C         ; Clear when the user answers correctly
 1024 0000047C         ;  Set when the user answers incorrectly
 1025 0000047C         
 1026 0000047C B5FF            PUSH             {R0-R7, LR}
 1027 0000047E         
 1028 0000047E 2600            MOVS             R6, #0      ;passed tests
 1029 00000480 2700            MOVS             R7, #0      ;counter
 1030 00000482 4B7B            LDR              R3,=GAME_BUFFER ;load the GAME_
                                                            BUFFER
 1031 00000484 681B            LDR              R3,[R3,#0]  ;load the contents 
                                                            of the GAME_BUFFER



ARM Macro Assembler    Page 25 Program Title for Listing Header Goes Here


 1032 00000486         
 1033 00000486         
 1034 00000486 4C7D            LDR              R4,=Normal_Array ;puts the addr
                                                            ess of the normal a
                                                            rray into R4
 1035 00000488 58E2            LDR              R2,[R4, R3] ;loads the word in 
                                                            the normal array at
                                                             offset GAME_BUFFER
                                                            
 1036 0000048A 497D            LDR              R1,=STRING
 1037 0000048C 0015            MOVS             R5,R2
 1038 0000048E 000B            MOVS             R3,R1
 1039 00000490         
 1040 00000490         ;Compare the values of each piece, R1 and R2
 1041 00000490         
 1042 00000490         
 1043 00000490         check_again
 1044 00000490 5DD9            LDRB             R1,[R3,R7]  ;get the letter of 
                                                            the user input
 1045 00000492 5DEA            LDRB             R2,[R5,R7]  ;get the letter of 
                                                            the normal word
 1046 00000494         
 1047 00000494 4291            CMP              R1,R2       ;compare the two le
                                                            tters
 1048 00000496 D10C            BNE              Set_C       ;if they're not equ
                                                            al that is not corr
                                                            ect
 1049 00000498         
 1050 00000498 1C76            ADDS             R6, R6, #1
 1051 0000049A         
 1052 0000049A 2900            CMP              R1, #NULL   ;if the user input 
                                                            reaches a null poin
                                                            ter then leave
 1053 0000049C         ;null pointer is automatically added at the end of GetSt
                       ringSB
 1054 0000049C D001            BEQ              leave_compare
 1055 0000049E         
 1056 0000049E 1C7F            ADDS             R7, R7, #ACCUM ;increment the c
                                                            ounter
 1057 000004A0 E7F6            B                check_again
 1058 000004A2         
 1059 000004A2         leave_compare
 1060 000004A2         
 1061 000004A2         ;CMP R6, R4     ;checking if the sizes of both strings a
                       re correct?
 1062 000004A2         ;BNE Set_C  
 1063 000004A2         
 1064 000004A2 F3EF 8400 
                       Clr_C   MRS              R4, APSR    ;after the end of t
                                                            he while loop, the 
                                                            bit is cleared
 1065 000004A6 2520            MOVS             R5, #0x20
 1066 000004A8 062D            LSLS             R5, R5, #24
 1067 000004AA 43AC            BICS             R4, R4, R5
 1068 000004AC F384 8800       MSR              APSR, R4
 1069 000004B0 E007            B                _POP
 1070 000004B2         
 1071 000004B2         
 1072 000004B2 F3EF 8400 



ARM Macro Assembler    Page 26 Program Title for Listing Header Goes Here


                       Set_C   MRS              R4, APSR    ;Sets the C bit if 
                                                            the result is inval
                                                            id
 1073 000004B6 2520            MOVS             R5, #0x20
 1074 000004B8 062D            LSLS             R5, R5, #24
 1075 000004BA 432C            ORRS             R4, R4, R5
 1076 000004BC F384 8800       MSR              APSR, R4
 1077 000004C0 E7FF            B                _POP
 1078 000004C2         
 1079 000004C2         _POP
 1080 000004C2 BDFF            POP{R0-R7,       PC}
 1081 000004C4                 ENDP
 1082 000004C4         
 1083 000004C4         UART0_ISR
                               PROC             {R2-R14}
 1084 000004C4         ;ISR Functionality
 1085 000004C4         ;Inputs: None
 1086 000004C4         ;Outputs: None
 1087 000004C4         
 1088 000004C4         ;Mask other interrupts
 1089 000004C4         
 1090 000004C4 B672            CPSID            I
 1091 000004C6 B5FF            PUSH             {R0-R7, LR}
 1092 000004C8         
 1093 000004C8 4E90            LDR              R6,=UART0_BASE
 1094 000004CA         
 1095 000004CA 78F2            LDRB             R2, [R6,#UART0_C2_OFFSET]
 1096 000004CC 2380            MOVS             R3, #UART0_C2_TIE_MASK
 1097 000004CE 4213            TST              R3, R2
 1098 000004D0 D00B            BEQ              Check_Receive
 1099 000004D2         
 1100 000004D2 2280            MOVS             R2, #UART0_S1_TDRE_MASK
 1101 000004D4 7935            LDRB             R5, [R6, #UART0_S1_OFFSET]
 1102 000004D6 4215            TST              R5, R2
 1103 000004D8 D007            BEQ              Check_Receive
 1104 000004DA         
 1105 000004DA 4971            LDR              R1,=TxRecord
 1106 000004DC F7FF FFFE       BL               Dequeue
 1107 000004E0         
 1108 000004E0 D201            BCS              fail_deq
 1109 000004E2         
 1110 000004E2 71F0            STRB             R0, [R6, #UART0_D_OFFSET]
 1111 000004E4 E001            B                Check_Receive
 1112 000004E6         
 1113 000004E6 252C    fail_deq
                               MOVS             R5,#UART0_C2_T_RI
 1114 000004E8 70F5            STRB             R5, [R6, #UART0_C2_OFFSET]
 1115 000004EA         
 1116 000004EA         Check_Receive
 1117 000004EA 2520            MOVS             R5,#UART0_S1_RDRF_MASK
 1118 000004EC 7937            LDRB             R7, [R6, #UART0_S1_OFFSET]
 1119 000004EE 422F            TST              R7, R5
 1120 000004F0 D003            BEQ              Leave
 1121 000004F2         
 1122 000004F2 79F0            LDRB             R0, [R6, #UART0_D_OFFSET]
 1123 000004F4 496C            LDR              R1,=RxRecord
 1124 000004F6 F7FF FFFE       BL               Enqueue
 1125 000004FA         
 1126 000004FA         Leave



ARM Macro Assembler    Page 27 Program Title for Listing Header Goes Here


 1127 000004FA B662            CPSIE            I
 1128 000004FC BDFF            POP              {R0-R7, PC}
 1129 000004FE                 ENDP
 1130 000004FE         
 1131 000004FE         PIT_ISR PROC             {R0-R14}
 1132 000004FE         ;Stopwatch loop stuff
 1133 000004FE B672            CPSID            I
 1134 00000500 B507            PUSH             {R0-R2,LR}
 1135 00000502         
 1136 00000502         ;Get stopwatch to compare
 1137 00000502 486A            LDR              R0,=StopWatch
 1138 00000504 6800            LDR              R0,[R0,#0]
 1139 00000506         
 1140 00000506 2800            CMP              R0,#0
 1141 00000508 D003            BEQ              clearPIT
 1142 0000050A         
 1143 0000050A 4969            LDR              R1,=Count
 1144 0000050C 680A            LDR              R2,[R1, #0]
 1145 0000050E         
 1146 0000050E 1C52            ADDS             R2,R2,#1
 1147 00000510 600A            STR              R2,[R1,#0]
 1148 00000512         
 1149 00000512         clearPIT
 1150 00000512 4883            LDR              R0,=PIT_CH0_BASE
 1151 00000514 4983            LDR              R1,=PIT_TFLG_TIF_MASK
 1152 00000516 60C1            STR              R1,[R0,#PIT_TFLG_OFFSET]
 1153 00000518 B662            CPSIE            I
 1154 0000051A BD07            POP              {R0-R2, PC}
 1155 0000051C                 ENDP
 1156 0000051C         
 1157 0000051C         Line_enter
                               PROC             {R2-R14}
 1158 0000051C         ;Prints a CR and LF to the terminal
 1159 0000051C         
 1160 0000051C B501            PUSH{R0,         LR}
 1161 0000051E         
 1162 0000051E 200A            MOVS             R0, #LF
 1163 00000520 F7FF FFFE       BL               PutChar
 1164 00000524 200D            MOVS             R0, #CR
 1165 00000526 F7FF FFFE       BL               PutChar
 1166 0000052A         
 1167 0000052A BD01            POP{R0,          PC}
 1168 0000052C                 ENDP
 1169 0000052C         
 1170 0000052C         Init_NVIC
                               PROC             {R0-R14}
 1171 0000052C         
 1172 0000052C 487E            LDR              R0,=UART0_IPR
 1173 0000052E         ;LDR     R1,=NVIC_IDR_UARTO_MASK
 1174 0000052E 4A7F            LDR              R2,=NVIC_IPR_UART0_PRI_3
 1175 00000530 6803            LDR              R3,[R0,#0]
 1176 00000532         ;BICS    R3,R3,R1,
 1177 00000532 4313            ORRS             R3,R3,R2
 1178 00000534 6003            STR              R3,[R0,#0]
 1179 00000536         
 1180 00000536         ;clesr any pending varto interrupts
 1181 00000536 487E            LDR              R0,=NVIC_ICPR
 1182 00000538 497E            LDR              R1,=NVIC_ICPR_UART0_MASK
 1183 0000053A 6001            STR              R1,[R0,#0]



ARM Macro Assembler    Page 28 Program Title for Listing Header Goes Here


 1184 0000053C         ;unmask vartointerrupts
 1185 0000053C 487E            LDR              R0,=NVIC_ISER
 1186 0000053E 497D            LDR              R1,=NVIC_ICER_UART0_MASK
 1187 00000540 6001            STR              R1,[R0,#0]
 1188 00000542         
 1189 00000542                 ENDP
 1190 00000542         
 1191 00000542         Init_PIT_IRQ
                               PROC             {R0-R14}
 1192 00000542         ;Enable the PIT
 1193 00000542         ;
 1194 00000542 B507            PUSH             {R0-R2, LR}
 1195 00000544         
 1196 00000544 487D            LDR              R0,=SIM_SCGC6
 1197 00000546 497E            LDR              R1,=SIM_SCGC6_PIT_MASK
 1198 00000548 6802            LDR              R2,[R0,#0]
 1199 0000054A 430A            ORRS             R2,R2,R1
 1200 0000054C 6002            STR              R2,[R0,#0]
 1201 0000054E         
 1202 0000054E         
 1203 0000054E         ;Diable PIT Timer
 1204 0000054E         
 1205 0000054E 4874            LDR              R0,=PIT_CH0_BASE
 1206 00000550 4974            LDR              R1,=PIT_TCTRL_TEN_MASK
 1207 00000552 6882            LDR              R2,[R0,#PIT_TCTRL_OFFSET]
 1208 00000554 438A            BICS             R2,R2,R1
 1209 00000556 6082            STR              R2,[R0,#PIT_TCTRL_OFFSET]
 1210 00000558         
 1211 00000558         
 1212 00000558         ;Set PIT Interrupt PR0oR0ty
 1213 00000558         
 1214 00000558 487A            LDR              R0,=PIT_IPR
 1215 0000055A 497B            LDR              R1,=NVIC_IPR_PIT_MASK
 1216 0000055C         ;LDR R2,=NVIC_IPR_PIT_PR0_0
 1217 0000055C 6801            LDR              R1,[R0,#0]
 1218 0000055E 4391            BICS             R1,R1,R2
 1219 00000560         ;ORRS Rl,Rl,R2
 1220 00000560 6001            STR              R1,[R0,#0]
 1221 00000562         
 1222 00000562         ;Clear any pending PIT interrupts
 1223 00000562         
 1224 00000562 4873            LDR              R0,=NVIC_ICPR
 1225 00000564 4979            LDR              R1,=NVIC_ICPR_PIT_MASK
 1226 00000566 6001            STR              R1,[R0,#0]
 1227 00000568         ;Unmask PIT interrupts
 1228 00000568 4873            LDR              R0,=NVIC_ISER
 1229 0000056A 4978            LDR              R1,=NVIC_ISER_PIT_MASK
 1230 0000056C 6001            STR              R1,[R0,#0]
 1231 0000056E         
 1232 0000056E         ;Enable PIT Module
 1233 0000056E         
 1234 0000056E 4878            LDR              R0,=PIT_BASE
 1235 00000570 496C            LDR              R1,=PIT_MCR_EN_FRZ
 1236 00000572 6001            STR              R1,[R0,#PIT_MCR_OFFSET]
 1237 00000574         ;Set PIT timer 0 peR0od for 0.01 s
 1238 00000574 486A            LDR              R0,=PIT_CH0_BASE
 1239 00000576 4977            LDR              R1,=PIT_LDVAL_10ms
 1240 00000578 6001            STR              R1,[R0,#PIT_LDVAL_OFFSET]
 1241 0000057A         ;Enable PIT timer 0 interrupt



ARM Macro Assembler    Page 29 Program Title for Listing Header Goes Here


 1242 0000057A 4977            LDR              R1,=PIT_TCTRL_CH_IE
 1243 0000057C 6081            STR              R1,[R0,#PIT_TCTRL_OFFSET]
 1244 0000057E         
 1245 0000057E BD07            POP              {R0-R2, PC}
 1246 00000580                 ENDP
 1247 00000580         
 1248 00000580         Init_UART0_IRQ
                               PROC             {R0-R14}
 1249 00000580         ;Initializes the UART0 and makes
 1250 00000580         ;it wait for instructions on what
 1251 00000580         ;to do next
 1252 00000580         
 1253 00000580 B50F            PUSH             {R0-R3, LR}
 1254 00000582         
 1255 00000582 484C            LDR              R0, =RxBuffer
 1256 00000584 4948            LDR              R1,=RxRecord
 1257 00000586 2250            MOVS             R2, #Rx_Q_BUF
 1258 00000588 F7FF FFFE       BL               InitQueue
 1259 0000058C 484A            LDR              R0, =TxBuffer
 1260 0000058E 4944            LDR              R1, =TxRecord
 1261 00000590 2250            MOVS             R2, #Tx_Q_BUF
 1262 00000592 F7FF FFFE       BL               InitQueue
 1263 00000596         
 1264 00000596         ;Select MCGFLLCLK as UART0 clock source
 1265 00000596 4975            LDR              R1,=SIM_SOPT2
 1266 00000598 4A75            LDR              R2,=SIM_SOPT2_UART0SRC_MASK
 1267 0000059A 680B            LDR              R3,[R1,#0]
 1268 0000059C 4393            BICS             R3,R3,R2
 1269 0000059E 4A75            LDR              R2,=SIM_SOPT2_UART0SRC_MCGFLLCL
K
 1270 000005A0 4313            ORRS             R3,R3,R2
 1271 000005A2 600B            STR              R3,[R1,#0]
 1272 000005A4         
 1273 000005A4         ;Set UART0 for external connection
 1274 000005A4 4974            LDR              R1,=SIM_SOPT5
 1275 000005A6 4A75            LDR              R2,=SIM_SOPT5_UART0_EXTERN_MASK
_CLEAR
 1276 000005A8 680B            LDR              R3,[R1,#0]
 1277 000005AA 4393            BICS             R3,R3,R2
 1278 000005AC 600B            STR              R3,[R1,#0]
 1279 000005AE         
 1280 000005AE         ;Enable UART0 module clock
 1281 000005AE 4974            LDR              R1,=SIM_SCGC4
 1282 000005B0 4A74            LDR              R2,=SIM_SCGC4_UART0_MASK
 1283 000005B2 680B            LDR              R3,[R1,#0]
 1284 000005B4 4313            ORRS             R3,R3,R2
 1285 000005B6 600B            STR              R3,[R1,#0]
 1286 000005B8         
 1287 000005B8         ;Enable PORT B module clock
 1288 000005B8 4973            LDR              R1,=SIM_SCGC5
 1289 000005BA 4A72            LDR              R2,=SIM_SCGC5_PORTB_MASK
 1290 000005BC 680B            LDR              R3,[R1,#0]
 1291 000005BE 4313            ORRS             R3,R3,R2
 1292 000005C0 600B            STR              R3,[R1,#0]
 1293 000005C2         
 1294 000005C2         ;Select PORT B Pin 2 (D0) for UART0 RX (J8 Pin 01)
 1295 000005C2 4972            LDR              R1,=PORTB_PCR2
 1296 000005C4 4A72            LDR              R2,=PORT_PCR_SET_PTB2_UART0_RX
 1297 000005C6 600A            STR              R2,[R1,#0]



ARM Macro Assembler    Page 30 Program Title for Listing Header Goes Here


 1298 000005C8         
 1299 000005C8         ; Select PORT B Pin 1 (D1) for UART0 TX (J8 Pin 02)
 1300 000005C8 4972            LDR              R1,=PORTB_PCR1
 1301 000005CA 4A71            LDR              R2,=PORT_PCR_SET_PTB1_UART0_TX
 1302 000005CC 600A            STR              R2,[R1,#0]
 1303 000005CE         
 1304 000005CE         ;Disable UART0 receiver and transmitter
 1305 000005CE 494F            LDR              R1,=UART0_BASE
 1306 000005D0 220C            MOVS             R2,#UART0_C2_T_R
 1307 000005D2 78CB            LDRB             R3,[R1,#UART0_C2_OFFSET]
 1308 000005D4 4393            BICS             R3,R3,R2
 1309 000005D6 70CB            STRB             R3,[R1,#UART0_C2_OFFSET]
 1310 000005D8         
 1311 000005D8         ;Set UART0 IRQ Priority
 1312 000005D8 4853            LDR              R0, =UART0_IPR
 1313 000005DA         ;LDR R1, =NVIC_IPR_UART0_MASK
 1314 000005DA 4A54            LDR              R2, =NVIC_IPR_UART0_PRI_3
 1315 000005DC 6803            LDR              R3, [R0, #0]
 1316 000005DE         
 1317 000005DE 4313            ORRS             R3, R3, R2
 1318 000005E0 6003            STR              R3, [R0, #0]
 1319 000005E2         ;Clear any pending UART0 interrupts   
 1320 000005E2 4853            LDR              R0, =NVIC_ICPR
 1321 000005E4 4953            LDR              R1, =NVIC_ICPR_UART0_MASK
 1322 000005E6 6001            STR              R1, [R0,#0]
 1323 000005E8         
 1324 000005E8         ;Unmask UART0 interrupts
 1325 000005E8 4853            LDR              R0, =NVIC_ISER
 1326 000005EA 4952            LDR              R1, =NVIC_ISER_UART0_MASK
 1327 000005EC 6001            STR              R1,[R0, #0]
 1328 000005EE         
 1329 000005EE         
 1330 000005EE         ;Set UART0 for 9600 baud, 8N1 protocol
 1331 000005EE 4947            LDR              R1, =UART0_BASE
 1332 000005F0 2201            MOVS             R2,#UART0_BDH_9600
 1333 000005F2 700A            STRB             R2,[R1,#UART0_BDH_OFFSET]
 1334 000005F4 2238            MOVS             R2,#UART0_BDL_9600
 1335 000005F6 704A            STRB             R2,[R1,#UART0_BDL_OFFSET]
 1336 000005F8 2200            MOVS             R2,#UART0_C1_8N1
 1337 000005FA 708A            STRB             R2,[R1,#UART0_C1_OFFSET]
 1338 000005FC 2200            MOVS             R2,#UART0_C3_NO_TXINV
 1339 000005FE         
 1340 000005FE 718A            STRB             R2,[R1,#UART0_C3_OFFSET]
 1341 00000600 220F            MOVS             R2,#UART0_C4_NO_MATCH_OSR_16
 1342 00000602 728A            STRB             R2,[R1,#UART0_C4_OFFSET]
 1343 00000604 2200            MOVS             R2,#UART0_C5_NO_DMA_SSR_SYNC
 1344 00000606 72CA            STRB             R2,[R1,#UART0_C5_OFFSET]
 1345 00000608 221F            MOVS             R2,#UART0_S1_CLEAR_FLAGS
 1346 0000060A 710A            STRB             R2,[R1,#UART0_S1_OFFSET]
 1347 0000060C 22C0            MOVS             R2, #UART0_S2_NO_RXINV_BRK10_NO
_LBKDETECT_CLEAR_FLAGS
 1348 0000060E 714A            STRB             R2,[R1,#UART0_S2_OFFSET]
 1349 00000610         
 1350 00000610         ;Enable UART0 receiver and transmitter
 1351 00000610 493E            LDR              R1, =UART0_BASE
 1352 00000612 220C            MOVS             R2,#UART0_C2_T_R
 1353 00000614 70CA            STRB             R2,[R1,#UART0_C2_OFFSET]
 1354 00000616         
 1355 00000616 BD0F            POP              {R0-R3, PC}



ARM Macro Assembler    Page 31 Program Title for Listing Header Goes Here


 1356 00000618                 ENDP
 1357 00000618         
 1358 00000618         PutStringSB
                               PROC             {R2-R14}
 1359 00000618         ; Displays a null-terminated string from memory,
 1360 00000618         ; starting at the address where R0 points, to the
 1361 00000618         ; terminal screen.
 1362 00000618         ; Parameters
 1363 00000618         ;    Input: R0: Pointer to source string
 1364 00000618         ;    Modify: APSR
 1365 00000618         ; Uses:
 1366 00000618         ;    PutChar
 1367 00000618         ;R0 = char
 1368 00000618         ;R1 = MAX_STRING size
 1369 00000618         ;R2 = String pointer/counter
 1370 00000618         
 1371 00000618 B518            PUSH             {R3, R4, LR}
 1372 0000061A         
 1373 0000061A 2200            MOVS             R2, #0      ;intialize counter
 1374 0000061C 24C8            MOVS             R4, #MAX_STRING
 1375 0000061E 1E64            SUBS             R4, R4, #1  ;Actual buffer size
                                                            
 1376 00000620         
 1377 00000620         put_another
 1378 00000620 42A2            CMP              R2, R4
 1379 00000622 D008            BEQ              Put_Terminate
 1380 00000624         
 1381 00000624 B401            PUSH             {R0}        ;save address onto 
                                                            stack
 1382 00000626         
 1383 00000626 5C80            LDRB             R0, [R0, R2] ;load the first va
                                                            lue of the string
 1384 00000628 2800            CMP              R0, #NULL
 1385 0000062A D004            BEQ              Put_Terminate ;if the value is 
                                                            null then terminate
                                                            
 1386 0000062C         
 1387 0000062C F7FF FFFE       BL               PutChar
 1388 00000630         
 1389 00000630 BC01            POP              {R0}        ;resets the og stri
                                                            ng
 1390 00000632         
 1391 00000632 1C52            ADDS             R2, R2, #1  ;increment counter
 1392 00000634 E7F4            B                put_another
 1393 00000636         
 1394 00000636         Put_Terminate
 1395 00000636 BD19            POP{R3,          R4, R0, PC}
 1396 00000638                 ENDP
 1397 00000638         
 1398 00000638         GetStringSB
                               PROC             {R2-R14}
 1399 00000638         ;Inputs a string from the user keyboard and saves it to
 1400 00000638         ;memory starting at the address R0 and adds null termina
                       tion
 1401 00000638         ;Cannot input more than MAX_STRING capacity
 1402 00000638         ;R0 = char value
 1403 00000638         ;R1 = buffer
 1404 00000638         ;R2 = pointer to String
 1405 00000638         ;R3 = counter



ARM Macro Assembler    Page 32 Program Title for Listing Header Goes Here


 1406 00000638         ;R4 = max_length of string before null
 1407 00000638         ;Parameters
 1408 00000638         ;   Input: R0: Pointer to destination string
 1409 00000638         ;   Modify: APSR
 1410 00000638         ; Uses:
 1411 00000638         ;   GetChar, PutChar
 1412 00000638         
 1413 00000638 B518            PUSH{R3,         R4, LR}
 1414 0000063A         
 1415 0000063A 2300            MOVS             R3, #0      ;initialize counter
                                                            
 1416 0000063C 000C            MOVS             R4, R1
 1417 0000063E 1E64            SUBS             R4, R4, #1  ;actual size of buf
                                                            fer without null
 1418 00000640         
 1419 00000640         ;MOVS R2, R0    ;temp reg for string
 1420 00000640 4A0F            LDR              R2,=STRING
 1421 00000642         
 1422 00000642         another_Char
 1423 00000642 42A3            CMP              R3, R4      ;if the counter = t
                                                            he max_length of th
                                                            e string then null 
                                                            terminate
 1424 00000644 D00B            BEQ              get_forever
 1425 00000646         
 1426 00000646         
 1427 00000646 F7FF FFFE       BL               GetChar     ;gets character
 1428 0000064A 280D            CMP              R0, #CR     ;checks if enter wa
                                                            s input
 1429 0000064C D004            BEQ              Null_Terminate ;terminates if e
                                                            nter was input
 1430 0000064E F7FF FFFE       BL               PutChar
 1431 00000652         
 1432 00000652 54D0            STRB             R0, [R2, R3] ;Store whatever wa
                                                            s in R0 into the st
                                                            ring R2 with an off
                                                            set of R3
 1433 00000654 1C5B            ADDS             R3, R3, #ACCUM ;increment the c
                                                            ounter
 1434 00000656 E7F4            B                another_Char ;loop to get anoth
                                                            er character
 1435 00000658         
 1436 00000658         Null_Terminate
 1437 00000658 2000            MOVS             R0, #NULL   ;adds null to R0
 1438 0000065A 54D0            STRB             R0, [R2, R3] ;adds null to the 
                                                            end of the string
 1439 0000065C         ;Stores the null into R2 with an offset of the MAX_STRIN
                       G
 1440 0000065C E004            B                byebye
 1441 0000065E         
 1442 0000065E         get_forever
 1443 0000065E F7FF FFFE       BL               GetChar
 1444 00000662 280D            CMP              R0, #CR
 1445 00000664 D0F8            BEQ              Null_Terminate
 1446 00000666 E7FA            B                get_forever
 1447 00000668         
 1448 00000668         
 1449 00000668 BD18    byebye  POP              {R3, R4, PC}
 1450 0000066A                 ENDP



ARM Macro Assembler    Page 33 Program Title for Listing Header Goes Here


 1451 0000066A         
 1452 0000066A         
 1453 0000066A         
 1454 0000066A         ;>>>>>   end subroutine code <<<<<
 1455 0000066A 00 00           ALIGN
 1456 0000066C         ;*******************************************************
                       *********
 1457 0000066C         ;Vector Table Mapped to Address 0 at Reset
 1458 0000066C         ;Linker requires __Vectors to be exported
 1459 0000066C 00000000 
              00000000 
              00000000 
              00000000 
              00000000 
              00000000 
              00000000 
              00000000 
              F80FF040 
              00000700 
              00000100 
              00000000 
              00000000 
              00000000 
              00000200 
              00000000 
              00000000 
              00000000 
              00000000 
              00000000 
              00000000 
              00000000 
              00000000 
              00000000 
              00000000 
              00000000 
              00000000 
              00000000 
              00000000 
              00000000 
              00000000 
              00000000 
              00000000 
              00000000 
              00000000 
              00000000 
              00000000 
              00000000 
              00000000 
              00000000 
              4006A000 
              00000000 
              00000000 
              00000000 
              00000000 
              40037100 
              00000001 
              E000E40C 
              000000C0 
              E000E280 



ARM Macro Assembler    Page 34 Program Title for Listing Header Goes Here


              00001000 
              E000E100 
              4004803C 
              00800000 
              E000E414 
              00C00000 
              00400000 
              40037000 
              0003A8F5 
              00000003 
              00000000 
              00000000 
              00000000 
              00000000 
              40048004 
              0C000000 
              04000000 
              40048010 
              00010005 
              40048034 
              00000400 
              40048038 
              4004A008 
              01000200 
              4004A004 
              00000000         AREA             RESET, DATA, READONLY
 1460 00000000                 EXPORT           __Vectors
 1461 00000000                 EXPORT           __Vectors_End
 1462 00000000                 EXPORT           __Vectors_Size
 1463 00000000                 IMPORT           __initial_sp
 1464 00000000                 IMPORT           Dummy_Handler
 1465 00000000                 IMPORT           HardFault_Handler
 1466 00000000         __Vectors
 1467 00000000         ;ARM core vectors
 1468 00000000 00000000        DCD              __initial_sp ;00:end of stack
 1469 00000004 00000000        DCD              Reset_Handler ;01:reset vector
 1470 00000008 00000000        DCD              Dummy_Handler ;02:NMI
 1471 0000000C 00000000        DCD              HardFault_Handler 
                                                            ;03:hard fault
 1472 00000010 00000000        DCD              Dummy_Handler ;04:(reserved)
 1473 00000014 00000000        DCD              Dummy_Handler ;05:(reserved)
 1474 00000018 00000000        DCD              Dummy_Handler ;06:(reserved)
 1475 0000001C 00000000        DCD              Dummy_Handler ;07:(reserved)
 1476 00000020 00000000        DCD              Dummy_Handler ;08:(reserved)
 1477 00000024 00000000        DCD              Dummy_Handler ;09:(reserved)
 1478 00000028 00000000        DCD              Dummy_Handler ;10:(reserved)
 1479 0000002C 00000000        DCD              Dummy_Handler ;11:SVCall (super
                                                            visor call)
 1480 00000030 00000000        DCD              Dummy_Handler ;12:(reserved)
 1481 00000034 00000000        DCD              Dummy_Handler ;13:(reserved)
 1482 00000038 00000000        DCD              Dummy_Handler ;14:PendSV (Penda
                                                            bleSrvReq)
 1483 0000003C         ;   pendable request 
 1484 0000003C         ;   for system service)
 1485 0000003C 00000000        DCD              Dummy_Handler ;15:SysTick (syst
                                                            em tick timer)
 1486 00000040 00000000        DCD              Dummy_Handler ;16:DMA channel 0
                                                             transfer 
 1487 00000044         ;   complete/error



ARM Macro Assembler    Page 35 Program Title for Listing Header Goes Here


 1488 00000044 00000000        DCD              Dummy_Handler ;17:DMA channel 1
                                                             transfer
 1489 00000048         ;   complete/error
 1490 00000048 00000000        DCD              Dummy_Handler ;18:DMA channel 2
                                                             transfer
 1491 0000004C         ;   complete/error
 1492 0000004C 00000000        DCD              Dummy_Handler ;19:DMA channel 3
                                                             transfer
 1493 00000050         ;   complete/error
 1494 00000050 00000000        DCD              Dummy_Handler ;20:(reserved)
 1495 00000054 00000000        DCD              Dummy_Handler ;21:FTFA command 
                                                            complete/
 1496 00000058         ;   read collision
 1497 00000058 00000000        DCD              Dummy_Handler ;22:low-voltage d
                                                            etect;
 1498 0000005C         ;   low-voltage warning
 1499 0000005C 00000000        DCD              Dummy_Handler ;23:low leakage w
                                                            akeup
 1500 00000060 00000000        DCD              Dummy_Handler ;24:I2C0
 1501 00000064 00000000        DCD              Dummy_Handler ;25:(reserved)
 1502 00000068 00000000        DCD              Dummy_Handler ;26:SPI0
 1503 0000006C 00000000        DCD              Dummy_Handler ;27:(reserved)
 1504 00000070 00000000        DCD              UART0_ISR   ;28:UART0 (status; 
                                                            error)
 1505 00000074 00000000        DCD              Dummy_Handler ;29:(reserved)
 1506 00000078 00000000        DCD              Dummy_Handler ;30:(reserved)
 1507 0000007C 00000000        DCD              Dummy_Handler ;31:ADC0
 1508 00000080 00000000        DCD              Dummy_Handler ;32:CMP0
 1509 00000084 00000000        DCD              Dummy_Handler ;33:TPM0
 1510 00000088 00000000        DCD              Dummy_Handler ;34:TPM1
 1511 0000008C 00000000        DCD              Dummy_Handler ;35:(reserved)
 1512 00000090 00000000        DCD              Dummy_Handler ;36:RTC (alarm)
 1513 00000094 00000000        DCD              Dummy_Handler ;37:RTC (seconds)
                                                            
 1514 00000098 00000000        DCD              PIT_ISR     ;38:PIT
 1515 0000009C 00000000        DCD              Dummy_Handler ;39:(reserved)
 1516 000000A0 00000000        DCD              Dummy_Handler ;40:(reserved)
 1517 000000A4 00000000        DCD              Dummy_Handler ;41:DAC0
 1518 000000A8 00000000        DCD              Dummy_Handler ;42:TSI0
 1519 000000AC 00000000        DCD              Dummy_Handler ;43:MCG
 1520 000000B0 00000000        DCD              Dummy_Handler ;44:LPTMR0
 1521 000000B4 00000000        DCD              Dummy_Handler ;45:(reserved)
 1522 000000B8 00000000        DCD              Dummy_Handler ;46:PORTA
 1523 000000BC 00000000        DCD              Dummy_Handler ;47:PORTB
 1524 000000C0         __Vectors_End
 1525 000000C0 000000C0 
                       __Vectors_Size
                               EQU              __Vectors_End - __Vectors
 1526 000000C0                 ALIGN
 1527 000000C0         ;*******************************************************
                       *********
 1528 000000C0         ;Constants
 1529 000000C0                 AREA             MyConst,DATA,READONLY
 1530 00000000         ;>>>>> begin constants here <<<<<
 1531 00000000 57 65 6C 
              63 6F 6D 
              65 20 74 
              6F 20 53 
              63 72 61 



ARM Macro Assembler    Page 36 Program Title for Listing Header Goes Here


              6D 62 6C 
              65 21 21 
              21 21 00 welcome_prompt
                               DCB              "Welcome to Scramble!!!!",0
 1532 00000018 48 65 72 
              65 20 61 
              72 65 20 
              74 68 65 
              20 70 6F 
              73 73 69 
              62 6C 65 
              20 63 6F 
              6D 6D 61 
              6E 64 73 
              3A 20 44 
              69 72 65 
              63 74 69 
              6F 6E 73 
              20 28 44 
              29 2C 20 
              52 65 73 
              74 61 72 
              74 20 28 
              52 29 2C 
              20 45 6E 
              64 20 28 
              45 29 2C 
              20 50 6C 
              61 79 20 
              28 50 29 
              3A 20 00 help_prompt
                               DCB              "Here are the possible commands
: Directions (D), Restart (R), End (E), Play (P): ",0
 1533 00000069 59 6F 75 
              20 77 69 
              6C 6C 20 
              62 65 20 
              73 68 6F 
              77 6E 20 
              61 20 77 
              6F 72 64 
              20 77 69 
              74 68 20 
              74 68 65 
              20 6C 65 
              74 74 65 
              72 73 20 
              72 65 61 
              72 72 61 
              6E 67 65 
              64 2E 00 directions_prompt_p1
                               DCB              "You will be shown a word with 
the letters rearranged.",0
 1534 0000009F 59 6F 75 
              72 20 6A 
              6F 62 20 
              69 73 20 
              74 6F 20 
              64 65 63 



ARM Macro Assembler    Page 37 Program Title for Listing Header Goes Here


              6F 64 65 
              20 74 68 
              65 20 73 
              63 72 61 
              6D 62 6C 
              65 64 20 
              61 73 20 
              66 61 73 
              74 20 61 
              73 20 79 
              6F 75 20 
              63 61 6E 
              2E 20 59 
              6F 75 72 
              20 74 69 
              6D 65 20 
              77 69 6C 
              6C 20 62 
              65 20 73 
              68 6F 77 
              6E 20 6F 
              6E 63 65 
              20 79 6F 
              75 20 63 
              6F 6D 70 
              6C 65 74 
              65 20 74 
              68 65 20 
              67 61 6D 
              65 2E 00 directions_prompt_p2
                               DCB              "Your job is to decode the scra
mbled as fast as you can. Your time will be shown once you complete the game.",
0
 1535 0000010B 49 66 20 
              79 6F 75 
              20 61 72 
              65 20 63 
              6F 72 72 
              65 63 74 
              20 61 20 
              67 72 65 
              65 6E 20 
              6C 69 67 
              68 74 20 
              77 69 6C 
              6C 20 61 
              70 70 65 
              61 72 2C 
              20 69 66 
              20 79 6F 
              75 20 61 
              72 65 20 
              77 72 6F 
              6E 67 20 
              61 20 72 
              65 64 20 
              6C 69 67 
              68 74 20 
              77 69 6C 



ARM Macro Assembler    Page 38 Program Title for Listing Header Goes Here


              6C 20 61 
              70 70 65 
              61 72 20 
              61 6E 64 
              20 79 6F 
              75 20 77 
              69 6C 6C 
              20 68 61 
              76 65 20 
              74 6F 20 
              74 72 79 
              20 61 67 
              61 69 6E 
              2E 00    directions_prompt_p3
                               DCB              "If you are correct a green lig
ht will appear, if you are wrong a red light will appear and you will have to t
ry again.",0
 1536 00000182 47 6F 6F 
              64 20 4C 
              75 63 6B 
              21 00    good_luck
                               DCB              "Good Luck!",0
 1537 0000018D 2D 2D 2D 
              2D 2D 2D 
              2D 2D 2D 
              2D 2D 2D 
              2D 2D 2D 
              2D 2D 2D 
              2D 2D 2D 
              2D 2D 2D 
              2D 2D 2D 
              2D 2D 2D 
              2D 2D 2D 
              2D 2D 2D 
              2D 2D 2D 
              2D 2D 2D 
              2D 2D 2D 
              2D 2D 2D 
              2D 2D 2D 
              2D 2D 2D 
              2D 2D 2D 
              2D 2D 2D 
              2D 2D 2D 
              2D 2D 2D 
              2D 2D 2D 
              2D 2D 2D 
              2D 2D 2D 
              00       dashed_lines
                               DCB              "------------------------------
---------------------------------------------",0
 1538 000001D9         
 1539 000001D9 57 6F 75 
              6C 64 20 
              79 6F 75 
              20 6C 69 
              6B 65 20 
              74 6F 20 
              73 74 61 
              72 74 20 



ARM Macro Assembler    Page 39 Program Title for Listing Header Goes Here


              61 20 67 
              61 6D 65 
              3F 20 59 
              65 73 28 
              59 29 20 
              48 65 6C 
              70 28 48 
              29 3A 20 
              00       Start_question
                               DCB              "Would you like to start a game
? Yes(Y) Help(H): ",0
 1540 0000020A 54 68 61 
              6E 6B 73 
              20 66 6F 
              72 20 70 
              6C 61 79 
              69 6E 67 
              21 20 3A 
              50 00    goodbye DCB              "Thanks for playing! :P",0
 1541 00000221 50 6C 65 
              61 73 65 
              20 65 6E 
              74 65 72 
              20 61 20 
              76 61 6C 
              69 64 20 
              63 68 61 
              72 61 63 
              74 65 72 
              2E 00    invalid_character
                               DCB              "Please enter a valid character
.",0
 1542 00000241 50 6C 65 
              61 73 65 
              20 65 6E 
              74 65 72 
              20 61 20 
              68 65 6C 
              70 20 63 
              6F 6D 6D 
              61 6E 64 
              2E 00    enter_help
                               DCB              "Please enter a help command.",
0
 1543 0000025E         
 1544 0000025E         ;Play_Game Prompts
 1545 0000025E 52 6F 75 
              6E 64 20 
              31 3A 20 
              45 61 73 
              79 00    round_one
                               DCB              "Round 1: Easy",0
 1546 0000026C 52 6F 75 
              6E 64 20 
              32 3A 20 
              4D 65 64 
              69 75 6D 
              00       round_two
                               DCB              "Round 2: Medium",0



ARM Macro Assembler    Page 40 Program Title for Listing Header Goes Here


 1547 0000027C 52 6F 75 
              6E 64 20 
              33 3A 20 
              48 61 72 
              64 00    round_three
                               DCB              "Round 3: Hard",0
 1548 0000028A         
 1549 0000028A 43 6F 72 
              72 65 63 
              74 21 00 correct DCB              "Correct!",0
 1550 00000293 57 72 6F 
              6E 67 20 
              3A 28 00 incorrect
                               DCB              "Wrong :(",0
 1551 0000029C         
 1552 0000029C 57 6F 75 
              6C 64 20 
              79 6F 75 
              20 6C 69 
              6B 65 20 
              74 6F 20 
              70 6C 61 
              79 20 61 
              67 61 69 
              6E 3F 00 play_again
                               DCB              "Would you like to play again?"
,0
 1553 000002BA 53 6F 72 
              72 79 2C 
              20 79 6F 
              75 20 6C 
              6F 73 74 
              21 00    loser   DCB              "Sorry, you lost!",0
 1554 000002CB 57 6F 75 
              6C 64 20 
              79 6F 75 
              20 6C 69 
              6B 65 20 
              74 6F 20 
              63 6F 6E 
              74 69 6E 
              75 65 3F 
              00       continue
                               DCB              "Would you like to continue?",0
 1555 000002E7         
 1556 000002E7 43 6F 6E 
              67 72 61 
              74 75 6C 
              61 74 69 
              6F 6E 73 
              21 20 59 
              6F 75 20 
              68 61 76 
              65 20 72 
              65 61 63 
              68 65 64 
              20 74 68 
              65 20 65 
              6E 64 20 



ARM Macro Assembler    Page 41 Program Title for Listing Header Goes Here


              6F 66 20 
              74 68 65 
              20 67 61 
              6D 65 2E 
              20 54 68 
              61 6E 6B 
              73 20 66 
              6F 72 20 
              70 6C 61 
              79 69 6E 
              67 21 21 
              00       end_game
                               DCB              "Congratulations! You have reac
hed the end of the game. Thanks for playing!!",0
 1557 00000333 49 74 20 
              74 6F 6F 
              6B 20 79 
              6F 75 20 
              00       time    DCB              "It took you ",0
 1558 00000340 20 6D 69 
              6C 69 2D 
              73 65 63 
              6F 6E 64 
              73 00    seconds DCB              " mili-seconds",0
 1559 0000034E         
 1560 0000034E         ;Normal & Scramble counterparts
 1561 0000034E         ;Easy mode
 1562 0000034E 68 65 6C 
              6C 6F 00 hello_normal
                               DCB              "hello",0
 1563 00000354                 ALIGN
 1564 00000354 6F 6C 65 
              6C 68 00 hello_scramble
                               DCB              "olelh",0
 1565 0000035A 00 00           ALIGN
 1566 0000035C         
 1567 0000035C 74 69 67 
              65 72 00 tiger_normal
                               DCB              "tiger",0
 1568 00000362 00 00           ALIGN
 1569 00000364 69 74 72 
              65 67 00 tiger_scramble
                               DCB              "itreg",0
 1570 0000036A 00 00           ALIGN
 1571 0000036C         
 1572 0000036C         ;Medium mode
 1573 0000036C 6D 61 74 
              63 68 61 
              00       matcha_normal
                               DCB              "matcha",0
 1574 00000373 00              ALIGN
 1575 00000374         
 1576 00000374 61 74 68 
              63 61 6D 
              00       matcha_scramble
                               DCB              "athcam",0
 1577 0000037B 00              ALIGN
 1578 0000037C         
 1579 0000037C 66 72 65 



ARM Macro Assembler    Page 42 Program Title for Listing Header Goes Here


              6E 63 68 
              00       french_normal
                               DCB              "french",0
 1580 00000383 00              ALIGN
 1581 00000384         
 1582 00000384 6E 68 72 
              66 63 65 
              00       french_scramble
                               DCB              "nhrfce",0
 1583 0000038B 00              ALIGN
 1584 0000038C         ;Hard mode
 1585 0000038C 61 63 63 
              65 73 73 
              6F 72 79 
              00       accessory_normal
                               DCB              "accessory",0
 1586 00000396 00 00           ALIGN
 1587 00000398 73 63 6F 
              73 65 61 
              79 72 63 
              00       accessory_scramble
                               DCB              "scoseayrc",0
 1588 000003A2 00 00           ALIGN
 1589 000003A4         
 1590 000003A4 70 69 73 
              74 61 63 
              68 69 6F 
              00       pistachio_normal
                               DCB              "pistachio",0
 1591 000003AE 00 00           ALIGN
 1592 000003B0         
 1593 000003B0 68 70 73 
              6F 69 74 
              69 63 61 
              00       pistachio_scramble
                               DCB              "hpsoitica",0
 1594 000003BA 00 00           ALIGN
 1595 000003BC         
 1596 000003BC         
 1597 000003BC         ;>>>>>   end constants here <<<<<
 1598 000003BC                 ALIGN
 1599 000003BC         ;*******************************************************
                       *********
 1600 000003BC         ;Variables
 1601 000003BC                 AREA             MyData,DATA,READWRITE
 1602 00000000         ;>>>>> begin variables here <<<<<
 1603 00000000 00 00 00 
              00 00 00 
              00 00 00 
              00 00 00 
              00 00 00 
              00 00 00 
              00 00 00 
              00 00 00 
              00 00 00 
              00 00 00 
              00 00 00 
              00 00 00 
              00 00 00 



ARM Macro Assembler    Page 43 Program Title for Listing Header Goes Here


              00 00 00 
              00 00 00 
              00 00 00 
              00 00 00 
              00 00 00 
              00 00 00 
              00 00 00 Normal_Array
                               SPACE            (60)
 1604 0000003C                 ALIGN
 1605 0000003C 00 00 00 
              00 00 00 
              00 00 00 
              00 00 00 
              00 00 00 
              00 00 00 
              00 00 00 
              00 00 00 
              00 00 00 
              00 00 00 
              00 00 00 
              00 00 00 
              00 00 00 
              00 00 00 
              00 00 00 
              00 00 00 
              00 00 00 
              00 00 00 
              00 00 00 
              00 00 00 Scramble_Array
                               SPACE            (60)
 1606 00000078                 ALIGN
 1607 00000078         
 1608 00000078 00 00 00 
              00       GAME_BUFFER
                               SPACE            4           ;this offset corres
                                                            ponds to the game n
                                                            umber that is being
                                                             played, not corres
                                                            ponding with memory
                                                             ranges 
 1609 0000007C                 ALIGN
 1610 0000007C         
 1611 0000007C 00 00 00 
              00       GAMES_PASSED
                               SPACE            4           ;numbers of games t
                                                            hat the user has pa
                                                            ssed
 1612 00000080                 ALIGN
 1613 00000080         
 1614 00000080 00 00 00 
              00 00 00 
              00 00 00 
              00 00 00 
              00 00 00 
              00 00 00 
              00 00 00 
              00 00 00 
              00 00 00 
              00 00 00 



ARM Macro Assembler    Page 44 Program Title for Listing Header Goes Here


              00 00 00 
              00 00 00 
              00 00 00 
              00 00 00 
              00 00 00 
              00 00 00 
              00 00 00 
              00 00 00 
              00 00 00 
              00 00 00 
              00 00 00 
              00 00 00 
              00 00 00 
              00 00 00 
              00 00 00 
              00 00 00 
              00       STRING  SPACE            79
 1615 000000CF 00              ALIGN
 1616 000000D0         
 1617 000000D0 00      StopWatch
                               SPACE            1
 1618 000000D1 00 00 00        ALIGN
 1619 000000D4 00 00 00 
              00       Count   SPACE            4
 1620 000000D8                 ALIGN
 1621 000000D8         
 1622 000000D8 00 00 00 
              00 00 00 
              00 00 00 
              00 00 00 
              00 00 00 
              00 00 00 
              00 00 00 
              00 00 00 
              00 00 00 
              00 00 00 
              00 00 00 
              00 00 00 
              00 00 00 
              00 00 00 
              00 00 00 
              00 00 00 
              00 00 00 
              00 00 00 
              00 00 00 
              00 00 00 
              00 00 00 
              00 00 00 
              00 00 00 
              00 00 00 
              00 00 00 
              00 00 00 
              00 00    RxBuffer
                               space            Rx_Q_BUF
 1623 00000128                 ALIGN
 1624 00000128 00 00 00 
              00 00 00 
              00 00 00 
              00 00 00 



ARM Macro Assembler    Page 45 Program Title for Listing Header Goes Here


              00 00 00 
              00 00 00 RxRecord
                               space            Rx_Q_REC
 1625 0000013A 00 00           ALIGN
 1626 0000013C 00 00 00 
              00 00 00 
              00 00 00 
              00 00 00 
              00 00 00 
              00 00 00 
              00 00 00 
              00 00 00 
              00 00 00 
              00 00 00 
              00 00 00 
              00 00 00 
              00 00 00 
              00 00 00 
              00 00 00 
              00 00 00 
              00 00 00 
              00 00 00 
              00 00 00 
              00 00 00 
              00 00 00 
              00 00 00 
              00 00 00 
              00 00 00 
              00 00 00 
              00 00 00 
              00 00    TxBuffer
                               space            Tx_Q_BUF
 1627 0000018C                 ALIGN
 1628 0000018C 00 00 00 
              00 00 00 
              00 00 00 
              00 00 00 
              00 00 00 
              00 00 00 TxRecord
                               space            Tx_Q_REC
 1629 0000019E 00 00           ALIGN
 1630 000001A0         ;>>>>>   end variables here <<<<<
 1631 000001A0         
 1632 000001A0                 ALIGN
 1633 000001A0                 END
Command Line: --debug --xref --diag_suppress=9931 --cpu=Cortex-M0+ --apcs=inter
work --depend=.\objects\ex_12.d -o.\objects\ex_12.o -IC:\Users\camil\AppData\Lo
cal\Arm\Packs\Keil\Kinetis_KLxx_DFP\1.15.0\Device\Include -IC:\Keil_v5\ARM\CMSI
S\Include --predefine="__EVAL SETA 1" --predefine="__UVISION_VERSION SETA 531" 
--predefine="MKL05Z32xxx4 SETA 1" --list=.\listings\ex_12.lst Ex_12.s



ARM Macro Assembler    Page 1 Alphabetic symbol ordering
Relocatable symbols

All_Off 0000024A

Symbol: All_Off
   Definitions
      At line 648 in file Ex_12.s
   Uses
      At line 347 in file Ex_12.s
      At line 434 in file Ex_12.s

Blue_On 00000270

Symbol: Blue_On
   Definitions
      At line 690 in file Ex_12.s
   Uses
      At line 452 in file Ex_12.s
Comment: Blue_On used once
Check_Receive 000004EA

Symbol: Check_Receive
   Definitions
      At line 1116 in file Ex_12.s
   Uses
      At line 1098 in file Ex_12.s
      At line 1103 in file Ex_12.s
      At line 1111 in file Ex_12.s

Clr_C 000004A2

Symbol: Clr_C
   Definitions
      At line 1064 in file Ex_12.s
   Uses
      None
Comment: Clr_C unused
Comparator 0000047C

Symbol: Comparator
   Definitions
      At line 1015 in file Ex_12.s
   Uses
      At line 780 in file Ex_12.s
      At line 868 in file Ex_12.s
      At line 949 in file Ex_12.s

GetStringSB 00000638

Symbol: GetStringSB
   Definitions
      At line 1398 in file Ex_12.s
   Uses
      At line 778 in file Ex_12.s
      At line 866 in file Ex_12.s
      At line 947 in file Ex_12.s

Green_On 00000266

Symbol: Green_On
   Definitions



ARM Macro Assembler    Page 2 Alphabetic symbol ordering
Relocatable symbols

      At line 678 in file Ex_12.s
   Uses
      At line 795 in file Ex_12.s
      At line 881 in file Ex_12.s
      At line 962 in file Ex_12.s

Init_Array 000001B8

Symbol: Init_Array
   Definitions
      At line 561 in file Ex_12.s
   Uses
      At line 345 in file Ex_12.s
Comment: Init_Array used once
Init_LED 00000228

Symbol: Init_LED
   Definitions
      At line 617 in file Ex_12.s
   Uses
      At line 346 in file Ex_12.s
Comment: Init_LED used once
Init_NVIC 0000052C

Symbol: Init_NVIC
   Definitions
      At line 1170 in file Ex_12.s
   Uses
      None
Comment: Init_NVIC unused
Init_PIT_IRQ 00000542

Symbol: Init_PIT_IRQ
   Definitions
      At line 1191 in file Ex_12.s
   Uses
      At line 339 in file Ex_12.s
Comment: Init_PIT_IRQ used once
Init_UART0_IRQ 00000580

Symbol: Init_UART0_IRQ
   Definitions
      At line 1248 in file Ex_12.s
   Uses
      At line 338 in file Ex_12.s
Comment: Init_UART0_IRQ used once
Leave 000004FA

Symbol: Leave
   Definitions
      At line 1126 in file Ex_12.s
   Uses
      At line 1120 in file Ex_12.s
Comment: Leave used once
Line_enter 0000051C

Symbol: Line_enter
   Definitions
      At line 1157 in file Ex_12.s



ARM Macro Assembler    Page 3 Alphabetic symbol ordering
Relocatable symbols

   Uses
      At line 353 in file Ex_12.s
      At line 358 in file Ex_12.s
      At line 363 in file Ex_12.s
      At line 368 in file Ex_12.s
      At line 373 in file Ex_12.s
      At line 378 in file Ex_12.s
      At line 386 in file Ex_12.s
      At line 457 in file Ex_12.s
      At line 489 in file Ex_12.s
      At line 499 in file Ex_12.s
      At line 504 in file Ex_12.s
      At line 509 in file Ex_12.s
      At line 518 in file Ex_12.s
      At line 744 in file Ex_12.s
      At line 758 in file Ex_12.s
      At line 765 in file Ex_12.s
      At line 774 in file Ex_12.s
      At line 796 in file Ex_12.s
      At line 824 in file Ex_12.s
      At line 833 in file Ex_12.s
      At line 848 in file Ex_12.s
      At line 853 in file Ex_12.s
      At line 862 in file Ex_12.s
      At line 882 in file Ex_12.s
      At line 887 in file Ex_12.s
      At line 911 in file Ex_12.s
      At line 922 in file Ex_12.s
      At line 927 in file Ex_12.s
      At line 943 in file Ex_12.s
      At line 963 in file Ex_12.s
      At line 968 in file Ex_12.s
      At line 979 in file Ex_12.s
      At line 994 in file Ex_12.s
      At line 997 in file Ex_12.s

Loop 0000005E

Symbol: Loop
   Definitions
      At line 378 in file Ex_12.s
   Uses
      At line 468 in file Ex_12.s
      At line 510 in file Ex_12.s
      At line 519 in file Ex_12.s
      At line 533 in file Ex_12.s
      At line 539 in file Ex_12.s

MyCode 00000000

Symbol: MyCode
   Definitions
      At line 301 in file Ex_12.s
   Uses
      None
Comment: MyCode unused
Null_Terminate 00000658

Symbol: Null_Terminate



ARM Macro Assembler    Page 4 Alphabetic symbol ordering
Relocatable symbols

   Definitions
      At line 1436 in file Ex_12.s
   Uses
      At line 1429 in file Ex_12.s
      At line 1445 in file Ex_12.s

PIT_ISR 000004FE

Symbol: PIT_ISR
   Definitions
      At line 1131 in file Ex_12.s
   Uses
      At line 1514 in file Ex_12.s
Comment: PIT_ISR used once
Play_Game 000002B0

Symbol: Play_Game
   Definitions
      At line 727 in file Ex_12.s
   Uses
      At line 446 in file Ex_12.s
Comment: Play_Game used once
PutStringSB 00000618

Symbol: PutStringSB
   Definitions
      At line 1358 in file Ex_12.s
   Uses
      At line 351 in file Ex_12.s
      At line 356 in file Ex_12.s
      At line 361 in file Ex_12.s
      At line 366 in file Ex_12.s
      At line 371 in file Ex_12.s
      At line 376 in file Ex_12.s
      At line 381 in file Ex_12.s
      At line 455 in file Ex_12.s
      At line 459 in file Ex_12.s
      At line 466 in file Ex_12.s
      At line 471 in file Ex_12.s
      At line 497 in file Ex_12.s
      At line 502 in file Ex_12.s
      At line 507 in file Ex_12.s
      At line 516 in file Ex_12.s
      At line 525 in file Ex_12.s
      At line 537 in file Ex_12.s
      At line 742 in file Ex_12.s
      At line 772 in file Ex_12.s
      At line 799 in file Ex_12.s
      At line 826 in file Ex_12.s
      At line 836 in file Ex_12.s
      At line 860 in file Ex_12.s
      At line 885 in file Ex_12.s
      At line 913 in file Ex_12.s
      At line 925 in file Ex_12.s
      At line 941 in file Ex_12.s
      At line 966 in file Ex_12.s
      At line 996 in file Ex_12.s

Put_Terminate 00000636



ARM Macro Assembler    Page 5 Alphabetic symbol ordering
Relocatable symbols


Symbol: Put_Terminate
   Definitions
      At line 1394 in file Ex_12.s
   Uses
      At line 1379 in file Ex_12.s
      At line 1385 in file Ex_12.s

Red_On 0000025C

Symbol: Red_On
   Definitions
      At line 666 in file Ex_12.s
   Uses
      At line 822 in file Ex_12.s
      At line 910 in file Ex_12.s
      At line 992 in file Ex_12.s

Reset_Handler 00000000

Symbol: Reset_Handler
   Definitions
      At line 326 in file Ex_12.s
   Uses
      At line 303 in file Ex_12.s
      At line 1469 in file Ex_12.s

Scramblizer 0000047C

Symbol: Scramblizer
   Definitions
      At line 1005 in file Ex_12.s
   Uses
      None
Comment: Scramblizer unused
Set_C 000004B2

Symbol: Set_C
   Definitions
      At line 1072 in file Ex_12.s
   Uses
      At line 1048 in file Ex_12.s
Comment: Set_C used once
Toggle_Green 0000027A

Symbol: Toggle_Green
   Definitions
      At line 702 in file Ex_12.s
   Uses
      At line 820 in file Ex_12.s
      At line 908 in file Ex_12.s
      At line 990 in file Ex_12.s

Toggle_Red 00000284

Symbol: Toggle_Red
   Definitions
      At line 714 in file Ex_12.s
   Uses



ARM Macro Assembler    Page 6 Alphabetic symbol ordering
Relocatable symbols

      At line 793 in file Ex_12.s
      At line 879 in file Ex_12.s
      At line 960 in file Ex_12.s

UART0_ISR 000004C4

Symbol: UART0_ISR
   Definitions
      At line 1083 in file Ex_12.s
   Uses
      At line 1504 in file Ex_12.s
Comment: UART0_ISR used once
_POP 000004C2

Symbol: _POP
   Definitions
      At line 1079 in file Ex_12.s
   Uses
      At line 1069 in file Ex_12.s
      At line 1077 in file Ex_12.s

another_Char 00000642

Symbol: another_Char
   Definitions
      At line 1422 in file Ex_12.s
   Uses
      At line 1434 in file Ex_12.s
Comment: another_Char used once
ask_help 000000DC

Symbol: ask_help
   Definitions
      At line 470 in file Ex_12.s
   Uses
      At line 416 in file Ex_12.s
Comment: ask_help used once
ask_play 0000008E

Symbol: ask_play
   Definitions
      At line 424 in file Ex_12.s
   Uses
      At line 420 in file Ex_12.s
Comment: ask_play used once
bot_loop 000003F4

Symbol: bot_loop
   Definitions
      At line 929 in file Ex_12.s
   Uses
      At line 978 in file Ex_12.s
Comment: bot_loop used once
byebye 00000668

Symbol: byebye
   Definitions
      At line 1449 in file Ex_12.s
   Uses



ARM Macro Assembler    Page 7 Alphabetic symbol ordering
Relocatable symbols

      At line 1440 in file Ex_12.s
Comment: byebye used once
check_D 000000FC

Symbol: check_D
   Definitions
      At line 493 in file Ex_12.s
   Uses
      None
Comment: check_D unused
check_E 00000130

Symbol: check_E
   Definitions
      At line 521 in file Ex_12.s
   Uses
      At line 513 in file Ex_12.s
Comment: check_E used once
check_H 00000120

Symbol: check_H
   Definitions
      At line 512 in file Ex_12.s
   Uses
      At line 494 in file Ex_12.s
Comment: check_H used once
check_P 0000013C

Symbol: check_P
   Definitions
      At line 529 in file Ex_12.s
   Uses
      At line 522 in file Ex_12.s
Comment: check_P used once
check_again 00000490

Symbol: check_again
   Definitions
      At line 1043 in file Ex_12.s
   Uses
      At line 1057 in file Ex_12.s
Comment: check_again used once
check_help 00000082

Symbol: check_help
   Definitions
      At line 415 in file Ex_12.s
   Uses
      None
Comment: check_help unused
check_other 000000F0

Symbol: check_other
   Definitions
      At line 479 in file Ex_12.s
   Uses
      At line 476 in file Ex_12.s
Comment: check_other used once
check_yes 00000088



ARM Macro Assembler    Page 8 Alphabetic symbol ordering
Relocatable symbols


Symbol: check_yes
   Definitions
      At line 419 in file Ex_12.s
   Uses
      At line 417 in file Ex_12.s
Comment: check_yes used once
check_z 0000007A

Symbol: check_z
   Definitions
      At line 403 in file Ex_12.s
   Uses
      At line 400 in file Ex_12.s
Comment: check_z used once
clearPIT 00000512

Symbol: clearPIT
   Definitions
      At line 1149 in file Ex_12.s
   Uses
      At line 1141 in file Ex_12.s
Comment: clearPIT used once
convert_Upper 00000080

Symbol: convert_Upper
   Definitions
      At line 407 in file Ex_12.s
   Uses
      At line 404 in file Ex_12.s
Comment: convert_Upper used once
end_of_program 0000014A

Symbol: end_of_program
   Definitions
      At line 555 in file Ex_12.s
   Uses
      At line 527 in file Ex_12.s
Comment: end_of_program used once
endof_game 0000047A

Symbol: endof_game
   Definitions
      At line 1000 in file Ex_12.s
   Uses
      At line 931 in file Ex_12.s
Comment: endof_game used once
fail_deq 000004E6

Symbol: fail_deq
   Definitions
      At line 1113 in file Ex_12.s
   Uses
      At line 1108 in file Ex_12.s
Comment: fail_deq used once
get_forever 0000065E

Symbol: get_forever
   Definitions



ARM Macro Assembler    Page 9 Alphabetic symbol ordering
Relocatable symbols

      At line 1442 in file Ex_12.s
   Uses
      At line 1424 in file Ex_12.s
      At line 1446 in file Ex_12.s

green_hard 0000042E

Symbol: green_hard
   Definitions
      At line 962 in file Ex_12.s
   Uses
      At line 958 in file Ex_12.s
Comment: green_hard used once
green_med 0000039E

Symbol: green_med
   Definitions
      At line 881 in file Ex_12.s
   Uses
      At line 877 in file Ex_12.s
Comment: green_med used once
green_only 0000030A

Symbol: green_only
   Definitions
      At line 795 in file Ex_12.s
   Uses
      At line 791 in file Ex_12.s
Comment: green_only used once
invalid 00000142

Symbol: invalid
   Definitions
      At line 535 in file Ex_12.s
   Uses
      At line 421 in file Ex_12.s
      At line 530 in file Ex_12.s

is_Lower 00000082

Symbol: is_Lower
   Definitions
      At line 411 in file Ex_12.s
   Uses
      At line 401 in file Ex_12.s
      At line 405 in file Ex_12.s

leave_compare 000004A2

Symbol: leave_compare
   Definitions
      At line 1059 in file Ex_12.s
   Uses
      At line 1054 in file Ex_12.s
Comment: leave_compare used once
lower 000000F8

Symbol: lower
   Definitions



ARM Macro Assembler    Page 10 Alphabetic symbol ordering
Relocatable symbols

      At line 487 in file Ex_12.s
   Uses
      At line 477 in file Ex_12.s
      At line 481 in file Ex_12.s

main 00000000

Symbol: main
   Definitions
      At line 327 in file Ex_12.s
   Uses
      None
Comment: main unused
mid_loop 00000358

Symbol: mid_loop
   Definitions
      At line 841 in file Ex_12.s
   Uses
      At line 897 in file Ex_12.s
Comment: mid_loop used once
put_another 00000620

Symbol: put_another
   Definitions
      At line 1377 in file Ex_12.s
   Uses
      At line 1392 in file Ex_12.s
Comment: put_another used once
red_hard 00000466

Symbol: red_hard
   Definitions
      At line 992 in file Ex_12.s
   Uses
      At line 988 in file Ex_12.s
Comment: red_hard used once
red_med 000003D2

Symbol: red_med
   Definitions
      At line 910 in file Ex_12.s
   Uses
      At line 906 in file Ex_12.s
Comment: red_med used once
red_only 0000033A

Symbol: red_only
   Definitions
      At line 822 in file Ex_12.s
   Uses
      At line 818 in file Ex_12.s
Comment: red_only used once
round2 0000034A

Symbol: round2
   Definitions
      At line 833 in file Ex_12.s
   Uses



ARM Macro Assembler    Page 11 Alphabetic symbol ordering
Relocatable symbols

      At line 753 in file Ex_12.s
Comment: round2 used once
round3 000003E2

Symbol: round3
   Definitions
      At line 919 in file Ex_12.s
   Uses
      At line 843 in file Ex_12.s
Comment: round3 used once
top_loop 000002C4

Symbol: top_loop
   Definitions
      At line 752 in file Ex_12.s
   Uses
      At line 809 in file Ex_12.s
Comment: top_loop used once
try_again 000002D0

Symbol: try_again
   Definitions
      At line 760 in file Ex_12.s
   Uses
      At line 828 in file Ex_12.s
Comment: try_again used once
try_hard 000003F8

Symbol: try_hard
   Definitions
      At line 933 in file Ex_12.s
   Uses
      At line 998 in file Ex_12.s
Comment: try_hard used once
try_medium 00000364

Symbol: try_medium
   Definitions
      At line 850 in file Ex_12.s
   Uses
      At line 915 in file Ex_12.s
Comment: try_medium used once
upper 000000F6

Symbol: upper
   Definitions
      At line 483 in file Ex_12.s
   Uses
      At line 480 in file Ex_12.s
Comment: upper used once
wrong_answer 00000328

Symbol: wrong_answer
   Definitions
      At line 811 in file Ex_12.s
   Uses
      At line 781 in file Ex_12.s
Comment: wrong_answer used once
wrong_hard 00000454



ARM Macro Assembler    Page 12 Alphabetic symbol ordering
Relocatable symbols


Symbol: wrong_hard
   Definitions
      At line 981 in file Ex_12.s
   Uses
      At line 950 in file Ex_12.s
Comment: wrong_hard used once
wrong_medium 000003C0

Symbol: wrong_medium
   Definitions
      At line 899 in file Ex_12.s
   Uses
      At line 869 in file Ex_12.s
Comment: wrong_medium used once
72 symbols



ARM Macro Assembler    Page 1 Alphabetic symbol ordering
Relocatable symbols

RESET 00000000

Symbol: RESET
   Definitions
      At line 1459 in file Ex_12.s
   Uses
      None
Comment: RESET unused
__Vectors 00000000

Symbol: __Vectors
   Definitions
      At line 1466 in file Ex_12.s
   Uses
      At line 1460 in file Ex_12.s
      At line 1525 in file Ex_12.s

__Vectors_End 000000C0

Symbol: __Vectors_End
   Definitions
      At line 1524 in file Ex_12.s
   Uses
      At line 1461 in file Ex_12.s
      At line 1525 in file Ex_12.s

3 symbols



ARM Macro Assembler    Page 1 Alphabetic symbol ordering
Relocatable symbols

MyConst 00000000

Symbol: MyConst
   Definitions
      At line 1529 in file Ex_12.s
   Uses
      None
Comment: MyConst unused
Start_question 000001D9

Symbol: Start_question
   Definitions
      At line 1539 in file Ex_12.s
   Uses
      At line 380 in file Ex_12.s
Comment: Start_question used once
accessory_normal 0000038C

Symbol: accessory_normal
   Definitions
      At line 1585 in file Ex_12.s
   Uses
      At line 602 in file Ex_12.s
Comment: accessory_normal used once
accessory_scramble 00000398

Symbol: accessory_scramble
   Definitions
      At line 1587 in file Ex_12.s
   Uses
      At line 604 in file Ex_12.s
Comment: accessory_scramble used once
continue 000002CB

Symbol: continue
   Definitions
      At line 1554 in file Ex_12.s
   Uses
      None
Comment: continue unused
correct 0000028A

Symbol: correct
   Definitions
      At line 1549 in file Ex_12.s
   Uses
      At line 797 in file Ex_12.s
      At line 883 in file Ex_12.s
      At line 964 in file Ex_12.s

dashed_lines 0000018D

Symbol: dashed_lines
   Definitions
      At line 1537 in file Ex_12.s
   Uses
      At line 375 in file Ex_12.s
Comment: dashed_lines used once
directions_prompt_p1 00000069



ARM Macro Assembler    Page 2 Alphabetic symbol ordering
Relocatable symbols


Symbol: directions_prompt_p1
   Definitions
      At line 1533 in file Ex_12.s
   Uses
      At line 355 in file Ex_12.s
      At line 496 in file Ex_12.s

directions_prompt_p2 0000009F

Symbol: directions_prompt_p2
   Definitions
      At line 1534 in file Ex_12.s
   Uses
      At line 360 in file Ex_12.s
      At line 501 in file Ex_12.s

directions_prompt_p3 0000010B

Symbol: directions_prompt_p3
   Definitions
      At line 1535 in file Ex_12.s
   Uses
      At line 365 in file Ex_12.s
      At line 506 in file Ex_12.s

end_game 000002E7

Symbol: end_game
   Definitions
      At line 1556 in file Ex_12.s
   Uses
      At line 454 in file Ex_12.s
Comment: end_game used once
enter_help 00000241

Symbol: enter_help
   Definitions
      At line 1542 in file Ex_12.s
   Uses
      None
Comment: enter_help unused
french_normal 0000037C

Symbol: french_normal
   Definitions
      At line 1579 in file Ex_12.s
   Uses
      At line 593 in file Ex_12.s
Comment: french_normal used once
french_scramble 00000384

Symbol: french_scramble
   Definitions
      At line 1582 in file Ex_12.s
   Uses
      At line 595 in file Ex_12.s
Comment: french_scramble used once
good_luck 00000182



ARM Macro Assembler    Page 3 Alphabetic symbol ordering
Relocatable symbols


Symbol: good_luck
   Definitions
      At line 1536 in file Ex_12.s
   Uses
      At line 370 in file Ex_12.s
Comment: good_luck used once
goodbye 0000020A

Symbol: goodbye
   Definitions
      At line 1540 in file Ex_12.s
   Uses
      At line 524 in file Ex_12.s
Comment: goodbye used once
hello_normal 0000034E

Symbol: hello_normal
   Definitions
      At line 1562 in file Ex_12.s
   Uses
      At line 572 in file Ex_12.s
Comment: hello_normal used once
hello_scramble 00000354

Symbol: hello_scramble
   Definitions
      At line 1564 in file Ex_12.s
   Uses
      At line 574 in file Ex_12.s
Comment: hello_scramble used once
help_prompt 00000018

Symbol: help_prompt
   Definitions
      At line 1532 in file Ex_12.s
   Uses
      At line 470 in file Ex_12.s
      At line 515 in file Ex_12.s

incorrect 00000293

Symbol: incorrect
   Definitions
      At line 1550 in file Ex_12.s
   Uses
      At line 825 in file Ex_12.s
      At line 912 in file Ex_12.s
      At line 995 in file Ex_12.s

invalid_character 00000221

Symbol: invalid_character
   Definitions
      At line 1541 in file Ex_12.s
   Uses
      At line 536 in file Ex_12.s
Comment: invalid_character used once
loser 000002BA



ARM Macro Assembler    Page 4 Alphabetic symbol ordering
Relocatable symbols


Symbol: loser
   Definitions
      At line 1553 in file Ex_12.s
   Uses
      None
Comment: loser unused
matcha_normal 0000036C

Symbol: matcha_normal
   Definitions
      At line 1573 in file Ex_12.s
   Uses
      At line 587 in file Ex_12.s
Comment: matcha_normal used once
matcha_scramble 00000374

Symbol: matcha_scramble
   Definitions
      At line 1576 in file Ex_12.s
   Uses
      At line 589 in file Ex_12.s
Comment: matcha_scramble used once
pistachio_normal 000003A4

Symbol: pistachio_normal
   Definitions
      At line 1590 in file Ex_12.s
   Uses
      At line 608 in file Ex_12.s
Comment: pistachio_normal used once
pistachio_scramble 000003B0

Symbol: pistachio_scramble
   Definitions
      At line 1593 in file Ex_12.s
   Uses
      At line 610 in file Ex_12.s
Comment: pistachio_scramble used once
play_again 0000029C

Symbol: play_again
   Definitions
      At line 1552 in file Ex_12.s
   Uses
      None
Comment: play_again unused
round_one 0000025E

Symbol: round_one
   Definitions
      At line 1545 in file Ex_12.s
   Uses
      At line 741 in file Ex_12.s
Comment: round_one used once
round_three 0000027C

Symbol: round_three
   Definitions



ARM Macro Assembler    Page 5 Alphabetic symbol ordering
Relocatable symbols

      At line 1547 in file Ex_12.s
   Uses
      At line 924 in file Ex_12.s
Comment: round_three used once
round_two 0000026C

Symbol: round_two
   Definitions
      At line 1546 in file Ex_12.s
   Uses
      At line 835 in file Ex_12.s
Comment: round_two used once
seconds 00000340

Symbol: seconds
   Definitions
      At line 1558 in file Ex_12.s
   Uses
      At line 465 in file Ex_12.s
Comment: seconds used once
tiger_normal 0000035C

Symbol: tiger_normal
   Definitions
      At line 1567 in file Ex_12.s
   Uses
      At line 578 in file Ex_12.s
Comment: tiger_normal used once
tiger_scramble 00000364

Symbol: tiger_scramble
   Definitions
      At line 1569 in file Ex_12.s
   Uses
      At line 580 in file Ex_12.s
Comment: tiger_scramble used once
time 00000333

Symbol: time
   Definitions
      At line 1557 in file Ex_12.s
   Uses
      At line 458 in file Ex_12.s
Comment: time used once
welcome_prompt 00000000

Symbol: welcome_prompt
   Definitions
      At line 1531 in file Ex_12.s
   Uses
      At line 350 in file Ex_12.s
Comment: welcome_prompt used once
35 symbols



ARM Macro Assembler    Page 1 Alphabetic symbol ordering
Relocatable symbols

Count 000000D4

Symbol: Count
   Definitions
      At line 1619 in file Ex_12.s
   Uses
      At line 440 in file Ex_12.s
      At line 461 in file Ex_12.s
      At line 1143 in file Ex_12.s

GAMES_PASSED 0000007C

Symbol: GAMES_PASSED
   Definitions
      At line 1611 in file Ex_12.s
   Uses
      At line 431 in file Ex_12.s
      At line 749 in file Ex_12.s
      At line 802 in file Ex_12.s
      At line 838 in file Ex_12.s
      At line 890 in file Ex_12.s
      At line 971 in file Ex_12.s

GAME_BUFFER 00000078

Symbol: GAME_BUFFER
   Definitions
      At line 1608 in file Ex_12.s
   Uses
      At line 427 in file Ex_12.s
      At line 746 in file Ex_12.s
      At line 806 in file Ex_12.s
      At line 894 in file Ex_12.s
      At line 975 in file Ex_12.s
      At line 1030 in file Ex_12.s

MyData 00000000

Symbol: MyData
   Definitions
      At line 1601 in file Ex_12.s
   Uses
      None
Comment: MyData unused
Normal_Array 00000000

Symbol: Normal_Array
   Definitions
      At line 1603 in file Ex_12.s
   Uses
      At line 343 in file Ex_12.s
      At line 425 in file Ex_12.s
      At line 756 in file Ex_12.s
      At line 763 in file Ex_12.s
      At line 846 in file Ex_12.s
      At line 851 in file Ex_12.s
      At line 920 in file Ex_12.s
      At line 934 in file Ex_12.s
      At line 1034 in file Ex_12.s



ARM Macro Assembler    Page 2 Alphabetic symbol ordering
Relocatable symbols


RxBuffer 000000D8

Symbol: RxBuffer
   Definitions
      At line 1622 in file Ex_12.s
   Uses
      At line 1255 in file Ex_12.s
Comment: RxBuffer used once
RxRecord 00000128

Symbol: RxRecord
   Definitions
      At line 1624 in file Ex_12.s
   Uses
      At line 1123 in file Ex_12.s
      At line 1256 in file Ex_12.s

STRING 00000080

Symbol: STRING
   Definitions
      At line 1614 in file Ex_12.s
   Uses
      At line 777 in file Ex_12.s
      At line 865 in file Ex_12.s
      At line 946 in file Ex_12.s
      At line 1036 in file Ex_12.s
      At line 1420 in file Ex_12.s

Scramble_Array 0000003C

Symbol: Scramble_Array
   Definitions
      At line 1605 in file Ex_12.s
   Uses
      At line 344 in file Ex_12.s
      At line 424 in file Ex_12.s
      At line 755 in file Ex_12.s
      At line 762 in file Ex_12.s
      At line 845 in file Ex_12.s
      At line 850 in file Ex_12.s
      At line 919 in file Ex_12.s
      At line 933 in file Ex_12.s

StopWatch 000000D0

Symbol: StopWatch
   Definitions
      At line 1617 in file Ex_12.s
   Uses
      At line 436 in file Ex_12.s
      At line 449 in file Ex_12.s
      At line 1137 in file Ex_12.s

TxBuffer 0000013C

Symbol: TxBuffer
   Definitions



ARM Macro Assembler    Page 3 Alphabetic symbol ordering
Relocatable symbols

      At line 1626 in file Ex_12.s
   Uses
      At line 1259 in file Ex_12.s
Comment: TxBuffer used once
TxRecord 0000018C

Symbol: TxRecord
   Definitions
      At line 1628 in file Ex_12.s
   Uses
      At line 1105 in file Ex_12.s
      At line 1260 in file Ex_12.s

12 symbols



ARM Macro Assembler    Page 1 Alphabetic symbol ordering
Absolute symbols

ACCUM 00000001

Symbol: ACCUM
   Definitions
      At line 28 in file Ex_12.s
   Uses
      At line 1056 in file Ex_12.s
      At line 1433 in file Ex_12.s

ADC0_BASE 4003B000

Symbol: ADC0_BASE
   Definitions
      At line 197 in file MKL05Z4.s
   Uses
      At line 221 in file MKL05Z4.s
      At line 222 in file MKL05Z4.s
      At line 223 in file MKL05Z4.s
      At line 224 in file MKL05Z4.s
      At line 225 in file MKL05Z4.s
      At line 226 in file MKL05Z4.s
      At line 227 in file MKL05Z4.s
      At line 228 in file MKL05Z4.s
      At line 229 in file MKL05Z4.s
      At line 230 in file MKL05Z4.s
      At line 231 in file MKL05Z4.s
      At line 232 in file MKL05Z4.s
      At line 233 in file MKL05Z4.s
      At line 235 in file MKL05Z4.s
      At line 236 in file MKL05Z4.s
      At line 239 in file MKL05Z4.s
      At line 240 in file MKL05Z4.s
      At line 241 in file MKL05Z4.s
      At line 242 in file MKL05Z4.s

ADC0_CFG1 4003B008

Symbol: ADC0_CFG1
   Definitions
      At line 221 in file MKL05Z4.s
   Uses
      None
Comment: ADC0_CFG1 unused
ADC0_CFG2 4003B00C

Symbol: ADC0_CFG2
   Definitions
      At line 222 in file MKL05Z4.s
   Uses
      None
Comment: ADC0_CFG2 unused
ADC0_CLP0 4003B04C

Symbol: ADC0_CLP0
   Definitions
      At line 225 in file MKL05Z4.s
   Uses
      None
Comment: ADC0_CLP0 unused



ARM Macro Assembler    Page 2 Alphabetic symbol ordering
Absolute symbols

ADC0_CLP1 4003B048

Symbol: ADC0_CLP1
   Definitions
      At line 226 in file MKL05Z4.s
   Uses
      None
Comment: ADC0_CLP1 unused
ADC0_CLP2 4003B044

Symbol: ADC0_CLP2
   Definitions
      At line 227 in file MKL05Z4.s
   Uses
      None
Comment: ADC0_CLP2 unused
ADC0_CLP3 4003B040

Symbol: ADC0_CLP3
   Definitions
      At line 228 in file MKL05Z4.s
   Uses
      None
Comment: ADC0_CLP3 unused
ADC0_CLP4 4003B03C

Symbol: ADC0_CLP4
   Definitions
      At line 229 in file MKL05Z4.s
   Uses
      None
Comment: ADC0_CLP4 unused
ADC0_CLPD 4003B034

Symbol: ADC0_CLPD
   Definitions
      At line 223 in file MKL05Z4.s
   Uses
      None
Comment: ADC0_CLPD unused
ADC0_CLPS 4003B038

Symbol: ADC0_CLPS
   Definitions
      At line 224 in file MKL05Z4.s
   Uses
      None
Comment: ADC0_CLPS unused
ADC0_CV1 4003B018

Symbol: ADC0_CV1
   Definitions
      At line 230 in file MKL05Z4.s
   Uses
      None
Comment: ADC0_CV1 unused
ADC0_CV2 4003B01C

Symbol: ADC0_CV2



ARM Macro Assembler    Page 3 Alphabetic symbol ordering
Absolute symbols

   Definitions
      At line 231 in file MKL05Z4.s
   Uses
      None
Comment: ADC0_CV2 unused
ADC0_IPR E000E40C

Symbol: ADC0_IPR
   Definitions
      At line 1453 in file MKL05Z4.s
   Uses
      None
Comment: ADC0_IPR unused
ADC0_IRQ_MASK 00008000

Symbol: ADC0_IRQ_MASK
   Definitions
      At line 1523 in file MKL05Z4.s
   Uses
      None
Comment: ADC0_IRQ_MASK unused
ADC0_IRQn 0000000F

Symbol: ADC0_IRQn
   Definitions
      At line 172 in file MKL05Z4.s
   Uses
      At line 1523 in file MKL05Z4.s
Comment: ADC0_IRQn used once
ADC0_OFS 4003B028

Symbol: ADC0_OFS
   Definitions
      At line 232 in file MKL05Z4.s
   Uses
      None
Comment: ADC0_OFS unused
ADC0_PG 4003B02C

Symbol: ADC0_PG
   Definitions
      At line 233 in file MKL05Z4.s
   Uses
      None
Comment: ADC0_PG unused
ADC0_PRI_POS 0000001E

Symbol: ADC0_PRI_POS
   Definitions
      At line 1489 in file MKL05Z4.s
   Uses
      None
Comment: ADC0_PRI_POS unused
ADC0_RA 4003B010

Symbol: ADC0_RA
   Definitions
      At line 235 in file MKL05Z4.s
   Uses



ARM Macro Assembler    Page 4 Alphabetic symbol ordering
Absolute symbols

      None
Comment: ADC0_RA unused
ADC0_RB 4003B014

Symbol: ADC0_RB
   Definitions
      At line 236 in file MKL05Z4.s
   Uses
      None
Comment: ADC0_RB unused
ADC0_SC1A 4003B000

Symbol: ADC0_SC1A
   Definitions
      At line 239 in file MKL05Z4.s
   Uses
      None
Comment: ADC0_SC1A unused
ADC0_SC1B 4003B004

Symbol: ADC0_SC1B
   Definitions
      At line 240 in file MKL05Z4.s
   Uses
      None
Comment: ADC0_SC1B unused
ADC0_SC2 4003B020

Symbol: ADC0_SC2
   Definitions
      At line 241 in file MKL05Z4.s
   Uses
      None
Comment: ADC0_SC2 unused
ADC0_SC3 4003B024

Symbol: ADC0_SC3
   Definitions
      At line 242 in file MKL05Z4.s
   Uses
      None
Comment: ADC0_SC3 unused
ADC0_Vector 0000001F

Symbol: ADC0_Vector
   Definitions
      At line 1574 in file MKL05Z4.s
   Uses
      None
Comment: ADC0_Vector unused
ADC_CFG1_ADICLK_MASK 00000003

Symbol: ADC_CFG1_ADICLK_MASK
   Definitions
      At line 270 in file MKL05Z4.s
   Uses
      None
Comment: ADC_CFG1_ADICLK_MASK unused
ADC_CFG1_ADICLK_SHIFT 00000000



ARM Macro Assembler    Page 5 Alphabetic symbol ordering
Absolute symbols


Symbol: ADC_CFG1_ADICLK_SHIFT
   Definitions
      At line 271 in file MKL05Z4.s
   Uses
      None
Comment: ADC_CFG1_ADICLK_SHIFT unused
ADC_CFG1_ADIV_MASK 00000060

Symbol: ADC_CFG1_ADIV_MASK
   Definitions
      At line 264 in file MKL05Z4.s
   Uses
      None
Comment: ADC_CFG1_ADIV_MASK unused
ADC_CFG1_ADIV_SHIFT 00000005

Symbol: ADC_CFG1_ADIV_SHIFT
   Definitions
      At line 265 in file MKL05Z4.s
   Uses
      None
Comment: ADC_CFG1_ADIV_SHIFT unused
ADC_CFG1_ADLPC_MASK 00000080

Symbol: ADC_CFG1_ADLPC_MASK
   Definitions
      At line 262 in file MKL05Z4.s
   Uses
      None
Comment: ADC_CFG1_ADLPC_MASK unused
ADC_CFG1_ADLPC_SHIFT 00000007

Symbol: ADC_CFG1_ADLPC_SHIFT
   Definitions
      At line 263 in file MKL05Z4.s
   Uses
      None
Comment: ADC_CFG1_ADLPC_SHIFT unused
ADC_CFG1_ADLSMP_MASK 00000010

Symbol: ADC_CFG1_ADLSMP_MASK
   Definitions
      At line 266 in file MKL05Z4.s
   Uses
      None
Comment: ADC_CFG1_ADLSMP_MASK unused
ADC_CFG1_ADLSMP_SHIFT 00000004

Symbol: ADC_CFG1_ADLSMP_SHIFT
   Definitions
      At line 267 in file MKL05Z4.s
   Uses
      None
Comment: ADC_CFG1_ADLSMP_SHIFT unused
ADC_CFG1_MODE_MASK 0000000C

Symbol: ADC_CFG1_MODE_MASK
   Definitions



ARM Macro Assembler    Page 6 Alphabetic symbol ordering
Absolute symbols

      At line 268 in file MKL05Z4.s
   Uses
      None
Comment: ADC_CFG1_MODE_MASK unused
ADC_CFG1_MODE_SHIFT 00000002

Symbol: ADC_CFG1_MODE_SHIFT
   Definitions
      At line 269 in file MKL05Z4.s
   Uses
      None
Comment: ADC_CFG1_MODE_SHIFT unused
ADC_CFG1_OFFSET 00000008

Symbol: ADC_CFG1_OFFSET
   Definitions
      At line 202 in file MKL05Z4.s
   Uses
      At line 221 in file MKL05Z4.s
Comment: ADC_CFG1_OFFSET used once
ADC_CFG2_ADACKEN_MASK 00000008

Symbol: ADC_CFG2_ADACKEN_MASK
   Definitions
      At line 293 in file MKL05Z4.s
   Uses
      None
Comment: ADC_CFG2_ADACKEN_MASK unused
ADC_CFG2_ADACKEN_SHIFT 00000003

Symbol: ADC_CFG2_ADACKEN_SHIFT
   Definitions
      At line 294 in file MKL05Z4.s
   Uses
      None
Comment: ADC_CFG2_ADACKEN_SHIFT unused
ADC_CFG2_ADHSC_MASK 00000004

Symbol: ADC_CFG2_ADHSC_MASK
   Definitions
      At line 295 in file MKL05Z4.s
   Uses
      None
Comment: ADC_CFG2_ADHSC_MASK unused
ADC_CFG2_ADHSC_SHIFT 00000002

Symbol: ADC_CFG2_ADHSC_SHIFT
   Definitions
      At line 296 in file MKL05Z4.s
   Uses
      None
Comment: ADC_CFG2_ADHSC_SHIFT unused
ADC_CFG2_ADLSTS_MASK 00000003

Symbol: ADC_CFG2_ADLSTS_MASK
   Definitions
      At line 297 in file MKL05Z4.s
   Uses
      None



ARM Macro Assembler    Page 7 Alphabetic symbol ordering
Absolute symbols

Comment: ADC_CFG2_ADLSTS_MASK unused
ADC_CFG2_ADLSTS_SHIFT 00000000

Symbol: ADC_CFG2_ADLSTS_SHIFT
   Definitions
      At line 298 in file MKL05Z4.s
   Uses
      None
Comment: ADC_CFG2_ADLSTS_SHIFT unused
ADC_CFG2_MUXSEL_MASK 00000010

Symbol: ADC_CFG2_MUXSEL_MASK
   Definitions
      At line 291 in file MKL05Z4.s
   Uses
      None
Comment: ADC_CFG2_MUXSEL_MASK unused
ADC_CFG2_MUXSEL_SHIFT 00000004

Symbol: ADC_CFG2_MUXSEL_SHIFT
   Definitions
      At line 292 in file MKL05Z4.s
   Uses
      None
Comment: ADC_CFG2_MUXSEL_SHIFT unused
ADC_CFG2_OFFSET 0000000C

Symbol: ADC_CFG2_OFFSET
   Definitions
      At line 203 in file MKL05Z4.s
   Uses
      At line 222 in file MKL05Z4.s
Comment: ADC_CFG2_OFFSET used once
ADC_CLP0_MASK 0000003F

Symbol: ADC_CLP0_MASK
   Definitions
      At line 315 in file MKL05Z4.s
   Uses
      None
Comment: ADC_CLP0_MASK unused
ADC_CLP0_OFFSET 0000004C

Symbol: ADC_CLP0_OFFSET
   Definitions
      At line 220 in file MKL05Z4.s
   Uses
      At line 225 in file MKL05Z4.s
Comment: ADC_CLP0_OFFSET used once
ADC_CLP0_SHIFT 00000000

Symbol: ADC_CLP0_SHIFT
   Definitions
      At line 316 in file MKL05Z4.s
   Uses
      None
Comment: ADC_CLP0_SHIFT unused
ADC_CLP1_MASK 0000007F




ARM Macro Assembler    Page 8 Alphabetic symbol ordering
Absolute symbols

Symbol: ADC_CLP1_MASK
   Definitions
      At line 321 in file MKL05Z4.s
   Uses
      None
Comment: ADC_CLP1_MASK unused
ADC_CLP1_OFFSET 00000048

Symbol: ADC_CLP1_OFFSET
   Definitions
      At line 219 in file MKL05Z4.s
   Uses
      At line 226 in file MKL05Z4.s
Comment: ADC_CLP1_OFFSET used once
ADC_CLP1_SHIFT 00000000

Symbol: ADC_CLP1_SHIFT
   Definitions
      At line 322 in file MKL05Z4.s
   Uses
      None
Comment: ADC_CLP1_SHIFT unused
ADC_CLP2_MASK 000000FF

Symbol: ADC_CLP2_MASK
   Definitions
      At line 327 in file MKL05Z4.s
   Uses
      None
Comment: ADC_CLP2_MASK unused
ADC_CLP2_OFFSET 00000044

Symbol: ADC_CLP2_OFFSET
   Definitions
      At line 218 in file MKL05Z4.s
   Uses
      At line 227 in file MKL05Z4.s
Comment: ADC_CLP2_OFFSET used once
ADC_CLP2_SHIFT 00000000

Symbol: ADC_CLP2_SHIFT
   Definitions
      At line 328 in file MKL05Z4.s
   Uses
      None
Comment: ADC_CLP2_SHIFT unused
ADC_CLP3_MASK 000001FF

Symbol: ADC_CLP3_MASK
   Definitions
      At line 333 in file MKL05Z4.s
   Uses
      None
Comment: ADC_CLP3_MASK unused
ADC_CLP3_OFFSET 00000040

Symbol: ADC_CLP3_OFFSET
   Definitions
      At line 217 in file MKL05Z4.s



ARM Macro Assembler    Page 9 Alphabetic symbol ordering
Absolute symbols

   Uses
      At line 228 in file MKL05Z4.s
Comment: ADC_CLP3_OFFSET used once
ADC_CLP3_SHIFT 00000000

Symbol: ADC_CLP3_SHIFT
   Definitions
      At line 334 in file MKL05Z4.s
   Uses
      None
Comment: ADC_CLP3_SHIFT unused
ADC_CLP4_MASK 000003FF

Symbol: ADC_CLP4_MASK
   Definitions
      At line 339 in file MKL05Z4.s
   Uses
      None
Comment: ADC_CLP4_MASK unused
ADC_CLP4_OFFSET 0000003C

Symbol: ADC_CLP4_OFFSET
   Definitions
      At line 216 in file MKL05Z4.s
   Uses
      At line 229 in file MKL05Z4.s
Comment: ADC_CLP4_OFFSET used once
ADC_CLP4_SHIFT 00000000

Symbol: ADC_CLP4_SHIFT
   Definitions
      At line 340 in file MKL05Z4.s
   Uses
      None
Comment: ADC_CLP4_SHIFT unused
ADC_CLPD_MASK 0000003F

Symbol: ADC_CLPD_MASK
   Definitions
      At line 303 in file MKL05Z4.s
   Uses
      None
Comment: ADC_CLPD_MASK unused
ADC_CLPD_OFFSET 00000034

Symbol: ADC_CLPD_OFFSET
   Definitions
      At line 214 in file MKL05Z4.s
   Uses
      At line 223 in file MKL05Z4.s
Comment: ADC_CLPD_OFFSET used once
ADC_CLPD_SHIFT 00000000

Symbol: ADC_CLPD_SHIFT
   Definitions
      At line 304 in file MKL05Z4.s
   Uses
      None
Comment: ADC_CLPD_SHIFT unused



ARM Macro Assembler    Page 10 Alphabetic symbol ordering
Absolute symbols

ADC_CLPS_MASK 0000003F

Symbol: ADC_CLPS_MASK
   Definitions
      At line 309 in file MKL05Z4.s
   Uses
      None
Comment: ADC_CLPS_MASK unused
ADC_CLPS_OFFSET 00000038

Symbol: ADC_CLPS_OFFSET
   Definitions
      At line 215 in file MKL05Z4.s
   Uses
      At line 224 in file MKL05Z4.s
Comment: ADC_CLPS_OFFSET used once
ADC_CLPS_SHIFT 00000000

Symbol: ADC_CLPS_SHIFT
   Definitions
      At line 310 in file MKL05Z4.s
   Uses
      None
Comment: ADC_CLPS_SHIFT unused
ADC_CV1_OFFSET 00000018

Symbol: ADC_CV1_OFFSET
   Definitions
      At line 207 in file MKL05Z4.s
   Uses
      At line 230 in file MKL05Z4.s
Comment: ADC_CV1_OFFSET used once
ADC_CV2_OFFSET 0000001C

Symbol: ADC_CV2_OFFSET
   Definitions
      At line 208 in file MKL05Z4.s
   Uses
      At line 231 in file MKL05Z4.s
Comment: ADC_CV2_OFFSET used once
ADC_CV_MASK 0000FFFF

Symbol: ADC_CV_MASK
   Definitions
      At line 348 in file MKL05Z4.s
   Uses
      None
Comment: ADC_CV_MASK unused
ADC_CV_SHIFT 00000000

Symbol: ADC_CV_SHIFT
   Definitions
      At line 349 in file MKL05Z4.s
   Uses
      None
Comment: ADC_CV_SHIFT unused
ADC_OFS_MASK 0000FFFF

Symbol: ADC_OFS_MASK



ARM Macro Assembler    Page 11 Alphabetic symbol ordering
Absolute symbols

   Definitions
      At line 354 in file MKL05Z4.s
   Uses
      None
Comment: ADC_OFS_MASK unused
ADC_OFS_OFFSET 00000028

Symbol: ADC_OFS_OFFSET
   Definitions
      At line 211 in file MKL05Z4.s
   Uses
      At line 232 in file MKL05Z4.s
Comment: ADC_OFS_OFFSET used once
ADC_OFS_SHIFT 00000000

Symbol: ADC_OFS_SHIFT
   Definitions
      At line 355 in file MKL05Z4.s
   Uses
      None
Comment: ADC_OFS_SHIFT unused
ADC_PG_MASK 0000FFFF

Symbol: ADC_PG_MASK
   Definitions
      At line 360 in file MKL05Z4.s
   Uses
      None
Comment: ADC_PG_MASK unused
ADC_PG_OFFSET 0000002C

Symbol: ADC_PG_OFFSET
   Definitions
      At line 212 in file MKL05Z4.s
   Uses
      At line 233 in file MKL05Z4.s
Comment: ADC_PG_OFFSET used once
ADC_PG_SHIFT 00000000

Symbol: ADC_PG_SHIFT
   Definitions
      At line 361 in file MKL05Z4.s
   Uses
      None
Comment: ADC_PG_SHIFT unused
ADC_RA_OFFSET 00000010

Symbol: ADC_RA_OFFSET
   Definitions
      At line 205 in file MKL05Z4.s
   Uses
      At line 235 in file MKL05Z4.s
Comment: ADC_RA_OFFSET used once
ADC_RB_OFFSET 00000014

Symbol: ADC_RB_OFFSET
   Definitions
      At line 206 in file MKL05Z4.s
   Uses



ARM Macro Assembler    Page 12 Alphabetic symbol ordering
Absolute symbols

      At line 236 in file MKL05Z4.s
Comment: ADC_RB_OFFSET used once
ADC_R_D_MASK 0000FFFF

Symbol: ADC_R_D_MASK
   Definitions
      At line 366 in file MKL05Z4.s
   Uses
      None
Comment: ADC_R_D_MASK unused
ADC_R_D_SHIFT 00000000

Symbol: ADC_R_D_SHIFT
   Definitions
      At line 367 in file MKL05Z4.s
   Uses
      None
Comment: ADC_R_D_SHIFT unused
ADC_SC1A_OFFSET 00000000

Symbol: ADC_SC1A_OFFSET
   Definitions
      At line 200 in file MKL05Z4.s
   Uses
      At line 239 in file MKL05Z4.s
Comment: ADC_SC1A_OFFSET used once
ADC_SC1B_OFFSET 00000004

Symbol: ADC_SC1B_OFFSET
   Definitions
      At line 201 in file MKL05Z4.s
   Uses
      At line 240 in file MKL05Z4.s
Comment: ADC_SC1B_OFFSET used once
ADC_SC1_ADCH_MASK 0000001F

Symbol: ADC_SC1_ADCH_MASK
   Definitions
      At line 411 in file MKL05Z4.s
   Uses
      None
Comment: ADC_SC1_ADCH_MASK unused
ADC_SC1_ADCH_SHIFT 00000000

Symbol: ADC_SC1_ADCH_SHIFT
   Definitions
      At line 412 in file MKL05Z4.s
   Uses
      None
Comment: ADC_SC1_ADCH_SHIFT unused
ADC_SC1_AIEN_MASK 00000040

Symbol: ADC_SC1_AIEN_MASK
   Definitions
      At line 409 in file MKL05Z4.s
   Uses
      None
Comment: ADC_SC1_AIEN_MASK unused
ADC_SC1_AIEN_SHIFT 00000006



ARM Macro Assembler    Page 13 Alphabetic symbol ordering
Absolute symbols


Symbol: ADC_SC1_AIEN_SHIFT
   Definitions
      At line 410 in file MKL05Z4.s
   Uses
      None
Comment: ADC_SC1_AIEN_SHIFT unused
ADC_SC1_COCO_MASK 00000080

Symbol: ADC_SC1_COCO_MASK
   Definitions
      At line 407 in file MKL05Z4.s
   Uses
      None
Comment: ADC_SC1_COCO_MASK unused
ADC_SC1_COCO_SHIFT 00000007

Symbol: ADC_SC1_COCO_SHIFT
   Definitions
      At line 408 in file MKL05Z4.s
   Uses
      None
Comment: ADC_SC1_COCO_SHIFT unused
ADC_SC2_ACFE_MASK 00000020

Symbol: ADC_SC2_ACFE_MASK
   Definitions
      At line 438 in file MKL05Z4.s
   Uses
      None
Comment: ADC_SC2_ACFE_MASK unused
ADC_SC2_ACFE_SHIFT 00000005

Symbol: ADC_SC2_ACFE_SHIFT
   Definitions
      At line 439 in file MKL05Z4.s
   Uses
      None
Comment: ADC_SC2_ACFE_SHIFT unused
ADC_SC2_ACFGT_MASK 00000010

Symbol: ADC_SC2_ACFGT_MASK
   Definitions
      At line 440 in file MKL05Z4.s
   Uses
      None
Comment: ADC_SC2_ACFGT_MASK unused
ADC_SC2_ACFGT_SHIFT 00000004

Symbol: ADC_SC2_ACFGT_SHIFT
   Definitions
      At line 441 in file MKL05Z4.s
   Uses
      None
Comment: ADC_SC2_ACFGT_SHIFT unused
ADC_SC2_ACREN_MASK 00000008

Symbol: ADC_SC2_ACREN_MASK
   Definitions



ARM Macro Assembler    Page 14 Alphabetic symbol ordering
Absolute symbols

      At line 442 in file MKL05Z4.s
   Uses
      None
Comment: ADC_SC2_ACREN_MASK unused
ADC_SC2_ACREN_SHIFT 00000003

Symbol: ADC_SC2_ACREN_SHIFT
   Definitions
      At line 443 in file MKL05Z4.s
   Uses
      None
Comment: ADC_SC2_ACREN_SHIFT unused
ADC_SC2_ADACT_MASK 00000080

Symbol: ADC_SC2_ADACT_MASK
   Definitions
      At line 434 in file MKL05Z4.s
   Uses
      None
Comment: ADC_SC2_ADACT_MASK unused
ADC_SC2_ADACT_SHIFT 00000007

Symbol: ADC_SC2_ADACT_SHIFT
   Definitions
      At line 435 in file MKL05Z4.s
   Uses
      None
Comment: ADC_SC2_ADACT_SHIFT unused
ADC_SC2_ADTRG_MASK 00000040

Symbol: ADC_SC2_ADTRG_MASK
   Definitions
      At line 436 in file MKL05Z4.s
   Uses
      None
Comment: ADC_SC2_ADTRG_MASK unused
ADC_SC2_ADTRG_SHIFT 00000006

Symbol: ADC_SC2_ADTRG_SHIFT
   Definitions
      At line 437 in file MKL05Z4.s
   Uses
      None
Comment: ADC_SC2_ADTRG_SHIFT unused
ADC_SC2_DMAEN_MASK 00000004

Symbol: ADC_SC2_DMAEN_MASK
   Definitions
      At line 444 in file MKL05Z4.s
   Uses
      None
Comment: ADC_SC2_DMAEN_MASK unused
ADC_SC2_DMAEN_SHIFT 00000002

Symbol: ADC_SC2_DMAEN_SHIFT
   Definitions
      At line 445 in file MKL05Z4.s
   Uses
      None



ARM Macro Assembler    Page 15 Alphabetic symbol ordering
Absolute symbols

Comment: ADC_SC2_DMAEN_SHIFT unused
ADC_SC2_OFFSET 00000020

Symbol: ADC_SC2_OFFSET
   Definitions
      At line 209 in file MKL05Z4.s
   Uses
      At line 241 in file MKL05Z4.s
Comment: ADC_SC2_OFFSET used once
ADC_SC2_REFSEL_MASK 00000003

Symbol: ADC_SC2_REFSEL_MASK
   Definitions
      At line 446 in file MKL05Z4.s
   Uses
      None
Comment: ADC_SC2_REFSEL_MASK unused
ADC_SC2_REFSEL_SHIFT 00000000

Symbol: ADC_SC2_REFSEL_SHIFT
   Definitions
      At line 447 in file MKL05Z4.s
   Uses
      None
Comment: ADC_SC2_REFSEL_SHIFT unused
ADC_SC3_ADCO_MASK 00000008

Symbol: ADC_SC3_ADCO_MASK
   Definitions
      At line 465 in file MKL05Z4.s
   Uses
      None
Comment: ADC_SC3_ADCO_MASK unused
ADC_SC3_ADCO_SHIFT 00000003

Symbol: ADC_SC3_ADCO_SHIFT
   Definitions
      At line 466 in file MKL05Z4.s
   Uses
      None
Comment: ADC_SC3_ADCO_SHIFT unused
ADC_SC3_AVGE_MASK 00000004

Symbol: ADC_SC3_AVGE_MASK
   Definitions
      At line 467 in file MKL05Z4.s
   Uses
      None
Comment: ADC_SC3_AVGE_MASK unused
ADC_SC3_AVGE_SHIFT 00000002

Symbol: ADC_SC3_AVGE_SHIFT
   Definitions
      At line 468 in file MKL05Z4.s
   Uses
      None
Comment: ADC_SC3_AVGE_SHIFT unused
ADC_SC3_AVGS_MASK 00000003




ARM Macro Assembler    Page 16 Alphabetic symbol ordering
Absolute symbols

Symbol: ADC_SC3_AVGS_MASK
   Definitions
      At line 469 in file MKL05Z4.s
   Uses
      None
Comment: ADC_SC3_AVGS_MASK unused
ADC_SC3_AVGS_SHIFT 00000000

Symbol: ADC_SC3_AVGS_SHIFT
   Definitions
      At line 470 in file MKL05Z4.s
   Uses
      None
Comment: ADC_SC3_AVGS_SHIFT unused
ADC_SC3_CALF_MASK 00000040

Symbol: ADC_SC3_CALF_MASK
   Definitions
      At line 463 in file MKL05Z4.s
   Uses
      None
Comment: ADC_SC3_CALF_MASK unused
ADC_SC3_CALF_SHIFT 00000006

Symbol: ADC_SC3_CALF_SHIFT
   Definitions
      At line 464 in file MKL05Z4.s
   Uses
      None
Comment: ADC_SC3_CALF_SHIFT unused
ADC_SC3_CAL_MASK 00000080

Symbol: ADC_SC3_CAL_MASK
   Definitions
      At line 461 in file MKL05Z4.s
   Uses
      None
Comment: ADC_SC3_CAL_MASK unused
ADC_SC3_CAL_SHIFT 00000007

Symbol: ADC_SC3_CAL_SHIFT
   Definitions
      At line 462 in file MKL05Z4.s
   Uses
      None
Comment: ADC_SC3_CAL_SHIFT unused
ADC_SC3_OFFSET 00000024

Symbol: ADC_SC3_OFFSET
   Definitions
      At line 210 in file MKL05Z4.s
   Uses
      At line 242 in file MKL05Z4.s
Comment: ADC_SC3_OFFSET used once
APSR_C_MASK 20000000

Symbol: APSR_C_MASK
   Definitions
      At line 90 in file MKL05Z4.s



ARM Macro Assembler    Page 17 Alphabetic symbol ordering
Absolute symbols

   Uses
      At line 129 in file MKL05Z4.s
Comment: APSR_C_MASK used once
APSR_C_SHIFT 0000001D

Symbol: APSR_C_SHIFT
   Definitions
      At line 91 in file MKL05Z4.s
   Uses
      At line 130 in file MKL05Z4.s
Comment: APSR_C_SHIFT used once
APSR_MASK F0000000

Symbol: APSR_MASK
   Definitions
      At line 84 in file MKL05Z4.s
   Uses
      None
Comment: APSR_MASK unused
APSR_N_MASK 80000000

Symbol: APSR_N_MASK
   Definitions
      At line 86 in file MKL05Z4.s
   Uses
      At line 125 in file MKL05Z4.s
Comment: APSR_N_MASK used once
APSR_N_SHIFT 0000001F

Symbol: APSR_N_SHIFT
   Definitions
      At line 87 in file MKL05Z4.s
   Uses
      At line 126 in file MKL05Z4.s
Comment: APSR_N_SHIFT used once
APSR_SHIFT 0000001C

Symbol: APSR_SHIFT
   Definitions
      At line 85 in file MKL05Z4.s
   Uses
      None
Comment: APSR_SHIFT unused
APSR_V_MASK 10000000

Symbol: APSR_V_MASK
   Definitions
      At line 92 in file MKL05Z4.s
   Uses
      At line 131 in file MKL05Z4.s
Comment: APSR_V_MASK used once
APSR_V_SHIFT 0000001C

Symbol: APSR_V_SHIFT
   Definitions
      At line 93 in file MKL05Z4.s
   Uses
      At line 132 in file MKL05Z4.s
Comment: APSR_V_SHIFT used once



ARM Macro Assembler    Page 18 Alphabetic symbol ordering
Absolute symbols

APSR_Z_MASK 40000000

Symbol: APSR_Z_MASK
   Definitions
      At line 88 in file MKL05Z4.s
   Uses
      At line 127 in file MKL05Z4.s
Comment: APSR_Z_MASK used once
APSR_Z_SHIFT 0000001E

Symbol: APSR_Z_SHIFT
   Definitions
      At line 89 in file MKL05Z4.s
   Uses
      At line 128 in file MKL05Z4.s
Comment: APSR_Z_SHIFT used once
BUF_PAST 0000000C

Symbol: BUF_PAST
   Definitions
      At line 56 in file Ex_12.s
   Uses
      None
Comment: BUF_PAST unused
BUF_SIZE 00000010

Symbol: BUF_SIZE
   Definitions
      At line 57 in file Ex_12.s
   Uses
      None
Comment: BUF_SIZE unused
BUF_STRT 00000008

Symbol: BUF_STRT
   Definitions
      At line 55 in file Ex_12.s
   Uses
      None
Comment: BUF_STRT unused
BYTE_BITS 00000008

Symbol: BYTE_BITS
   Definitions
      At line 36 in file MKL05Z4.s
   Uses
      None
Comment: BYTE_BITS unused
BYTE_MASK 000000FF

Symbol: BYTE_MASK
   Definitions
      At line 33 in file MKL05Z4.s
   Uses
      None
Comment: BYTE_MASK unused
BackDoorK0 000000FF

Symbol: BackDoorK0



ARM Macro Assembler    Page 19 Alphabetic symbol ordering
Absolute symbols

   Definitions
      At line 729 in file MKL05Z4.s
   Uses
      None
Comment: BackDoorK0 unused
BackDoorK1 000000FF

Symbol: BackDoorK1
   Definitions
      At line 734 in file MKL05Z4.s
   Uses
      None
Comment: BackDoorK1 unused
BackDoorK2 000000FF

Symbol: BackDoorK2
   Definitions
      At line 739 in file MKL05Z4.s
   Uses
      None
Comment: BackDoorK2 unused
BackDoorK3 000000FF

Symbol: BackDoorK3
   Definitions
      At line 744 in file MKL05Z4.s
   Uses
      None
Comment: BackDoorK3 unused
BackDoorK4 000000FF

Symbol: BackDoorK4
   Definitions
      At line 749 in file MKL05Z4.s
   Uses
      None
Comment: BackDoorK4 unused
BackDoorK5 000000FF

Symbol: BackDoorK5
   Definitions
      At line 754 in file MKL05Z4.s
   Uses
      None
Comment: BackDoorK5 unused
BackDoorK6 000000FF

Symbol: BackDoorK6
   Definitions
      At line 759 in file MKL05Z4.s
   Uses
      None
Comment: BackDoorK6 unused
BackDoorK7 000000FF

Symbol: BackDoorK7
   Definitions
      At line 764 in file MKL05Z4.s
   Uses



ARM Macro Assembler    Page 20 Alphabetic symbol ordering
Absolute symbols

      None
Comment: BackDoorK7 unused
CMP0_BASE 40073000

Symbol: CMP0_BASE
   Definitions
      At line 473 in file MKL05Z4.s
   Uses
      At line 481 in file MKL05Z4.s
      At line 482 in file MKL05Z4.s
      At line 483 in file MKL05Z4.s
      At line 484 in file MKL05Z4.s
      At line 485 in file MKL05Z4.s
      At line 486 in file MKL05Z4.s

CMP0_CR0 40073000

Symbol: CMP0_CR0
   Definitions
      At line 481 in file MKL05Z4.s
   Uses
      None
Comment: CMP0_CR0 unused
CMP0_CR0_OFFSET 00000000

Symbol: CMP0_CR0_OFFSET
   Definitions
      At line 475 in file MKL05Z4.s
   Uses
      At line 481 in file MKL05Z4.s
Comment: CMP0_CR0_OFFSET used once
CMP0_CR1 40073001

Symbol: CMP0_CR1
   Definitions
      At line 482 in file MKL05Z4.s
   Uses
      None
Comment: CMP0_CR1 unused
CMP0_CR1_OFFSET 00000001

Symbol: CMP0_CR1_OFFSET
   Definitions
      At line 476 in file MKL05Z4.s
   Uses
      At line 482 in file MKL05Z4.s
Comment: CMP0_CR1_OFFSET used once
CMP0_DACCR 40073004

Symbol: CMP0_DACCR
   Definitions
      At line 485 in file MKL05Z4.s
   Uses
      None
Comment: CMP0_DACCR unused
CMP0_DACCR_OFFSET 00000004

Symbol: CMP0_DACCR_OFFSET
   Definitions



ARM Macro Assembler    Page 21 Alphabetic symbol ordering
Absolute symbols

      At line 479 in file MKL05Z4.s
   Uses
      At line 485 in file MKL05Z4.s
Comment: CMP0_DACCR_OFFSET used once
CMP0_FPR 40073002

Symbol: CMP0_FPR
   Definitions
      At line 483 in file MKL05Z4.s
   Uses
      None
Comment: CMP0_FPR unused
CMP0_FPR_OFFSET 00000002

Symbol: CMP0_FPR_OFFSET
   Definitions
      At line 477 in file MKL05Z4.s
   Uses
      At line 483 in file MKL05Z4.s
Comment: CMP0_FPR_OFFSET used once
CMP0_IPR E000E410

Symbol: CMP0_IPR
   Definitions
      At line 1454 in file MKL05Z4.s
   Uses
      None
Comment: CMP0_IPR unused
CMP0_IRQ_MASK 00010000

Symbol: CMP0_IRQ_MASK
   Definitions
      At line 1524 in file MKL05Z4.s
   Uses
      None
Comment: CMP0_IRQ_MASK unused
CMP0_IRQn 00000010

Symbol: CMP0_IRQn
   Definitions
      At line 173 in file MKL05Z4.s
   Uses
      At line 1524 in file MKL05Z4.s
Comment: CMP0_IRQn used once
CMP0_MUXCR 40073005

Symbol: CMP0_MUXCR
   Definitions
      At line 486 in file MKL05Z4.s
   Uses
      None
Comment: CMP0_MUXCR unused
CMP0_MUXCR_OFFSET 00000005

Symbol: CMP0_MUXCR_OFFSET
   Definitions
      At line 480 in file MKL05Z4.s
   Uses
      At line 486 in file MKL05Z4.s



ARM Macro Assembler    Page 22 Alphabetic symbol ordering
Absolute symbols

Comment: CMP0_MUXCR_OFFSET used once
CMP0_PRI_POS 00000006

Symbol: CMP0_PRI_POS
   Definitions
      At line 1490 in file MKL05Z4.s
   Uses
      None
Comment: CMP0_PRI_POS unused
CMP0_SCR 40073003

Symbol: CMP0_SCR
   Definitions
      At line 484 in file MKL05Z4.s
   Uses
      None
Comment: CMP0_SCR unused
CMP0_SCR_OFFSET 00000003

Symbol: CMP0_SCR_OFFSET
   Definitions
      At line 478 in file MKL05Z4.s
   Uses
      At line 484 in file MKL05Z4.s
Comment: CMP0_SCR_OFFSET used once
CMP0_Vector 00000020

Symbol: CMP0_Vector
   Definitions
      At line 1575 in file MKL05Z4.s
   Uses
      None
Comment: CMP0_Vector unused
CMP_CR0_FILTER_CNT_MASK 00000070

Symbol: CMP_CR0_FILTER_CNT_MASK
   Definitions
      At line 496 in file MKL05Z4.s
   Uses
      None
Comment: CMP_CR0_FILTER_CNT_MASK unused
CMP_CR0_FILTER_CNT_SHIFT 00000004

Symbol: CMP_CR0_FILTER_CNT_SHIFT
   Definitions
      At line 497 in file MKL05Z4.s
   Uses
      None
Comment: CMP_CR0_FILTER_CNT_SHIFT unused
CMP_CR0_HYSTCTR_MASK 00000003

Symbol: CMP_CR0_HYSTCTR_MASK
   Definitions
      At line 494 in file MKL05Z4.s
   Uses
      None
Comment: CMP_CR0_HYSTCTR_MASK unused
CMP_CR0_HYSTCTR_SHIFT 00000000




ARM Macro Assembler    Page 23 Alphabetic symbol ordering
Absolute symbols

Symbol: CMP_CR0_HYSTCTR_SHIFT
   Definitions
      At line 495 in file MKL05Z4.s
   Uses
      None
Comment: CMP_CR0_HYSTCTR_SHIFT unused
CMP_CR1_COS_MASK 00000004

Symbol: CMP_CR1_COS_MASK
   Definitions
      At line 516 in file MKL05Z4.s
   Uses
      None
Comment: CMP_CR1_COS_MASK unused
CMP_CR1_COS_SHIFT 00000002

Symbol: CMP_CR1_COS_SHIFT
   Definitions
      At line 517 in file MKL05Z4.s
   Uses
      None
Comment: CMP_CR1_COS_SHIFT unused
CMP_CR1_EN_MASK 00000001

Symbol: CMP_CR1_EN_MASK
   Definitions
      At line 512 in file MKL05Z4.s
   Uses
      None
Comment: CMP_CR1_EN_MASK unused
CMP_CR1_EN_SHIFT 00000000

Symbol: CMP_CR1_EN_SHIFT
   Definitions
      At line 513 in file MKL05Z4.s
   Uses
      None
Comment: CMP_CR1_EN_SHIFT unused
CMP_CR1_INV_MASK 00000008

Symbol: CMP_CR1_INV_MASK
   Definitions
      At line 518 in file MKL05Z4.s
   Uses
      None
Comment: CMP_CR1_INV_MASK unused
CMP_CR1_INV_SHIFT 00000003

Symbol: CMP_CR1_INV_SHIFT
   Definitions
      At line 519 in file MKL05Z4.s
   Uses
      None
Comment: CMP_CR1_INV_SHIFT unused
CMP_CR1_OPE_MASK 00000002

Symbol: CMP_CR1_OPE_MASK
   Definitions
      At line 514 in file MKL05Z4.s



ARM Macro Assembler    Page 24 Alphabetic symbol ordering
Absolute symbols

   Uses
      None
Comment: CMP_CR1_OPE_MASK unused
CMP_CR1_OPE_SHIFT 00000001

Symbol: CMP_CR1_OPE_SHIFT
   Definitions
      At line 515 in file MKL05Z4.s
   Uses
      None
Comment: CMP_CR1_OPE_SHIFT unused
CMP_CR1_PMODE_MASK 00000010

Symbol: CMP_CR1_PMODE_MASK
   Definitions
      At line 520 in file MKL05Z4.s
   Uses
      None
Comment: CMP_CR1_PMODE_MASK unused
CMP_CR1_PMODE_SHIFT 00000004

Symbol: CMP_CR1_PMODE_SHIFT
   Definitions
      At line 521 in file MKL05Z4.s
   Uses
      None
Comment: CMP_CR1_PMODE_SHIFT unused
CMP_CR1_SE_MASK 00000080

Symbol: CMP_CR1_SE_MASK
   Definitions
      At line 526 in file MKL05Z4.s
   Uses
      None
Comment: CMP_CR1_SE_MASK unused
CMP_CR1_SE_SHIFT 00000007

Symbol: CMP_CR1_SE_SHIFT
   Definitions
      At line 527 in file MKL05Z4.s
   Uses
      None
Comment: CMP_CR1_SE_SHIFT unused
CMP_CR1_TRIGM_MASK 00000020

Symbol: CMP_CR1_TRIGM_MASK
   Definitions
      At line 522 in file MKL05Z4.s
   Uses
      None
Comment: CMP_CR1_TRIGM_MASK unused
CMP_CR1_TRIGM_SHIFT 00000005

Symbol: CMP_CR1_TRIGM_SHIFT
   Definitions
      At line 523 in file MKL05Z4.s
   Uses
      None
Comment: CMP_CR1_TRIGM_SHIFT unused



ARM Macro Assembler    Page 25 Alphabetic symbol ordering
Absolute symbols

CMP_CR1_WE_MASK 00000040

Symbol: CMP_CR1_WE_MASK
   Definitions
      At line 524 in file MKL05Z4.s
   Uses
      None
Comment: CMP_CR1_WE_MASK unused
CMP_CR1_WE_SHIFT 00000006

Symbol: CMP_CR1_WE_SHIFT
   Definitions
      At line 525 in file MKL05Z4.s
   Uses
      None
Comment: CMP_CR1_WE_SHIFT unused
CMP_DACCR_DACEN_MASK 00000080

Symbol: CMP_DACCR_DACEN_MASK
   Definitions
      At line 567 in file MKL05Z4.s
   Uses
      None
Comment: CMP_DACCR_DACEN_MASK unused
CMP_DACCR_DACEN_SHIFT 00000007

Symbol: CMP_DACCR_DACEN_SHIFT
   Definitions
      At line 568 in file MKL05Z4.s
   Uses
      None
Comment: CMP_DACCR_DACEN_SHIFT unused
CMP_DACCR_VOSEL_MASK 0000003F

Symbol: CMP_DACCR_VOSEL_MASK
   Definitions
      At line 563 in file MKL05Z4.s
   Uses
      None
Comment: CMP_DACCR_VOSEL_MASK unused
CMP_DACCR_VOSEL_SHIFT 00000000

Symbol: CMP_DACCR_VOSEL_SHIFT
   Definitions
      At line 564 in file MKL05Z4.s
   Uses
      None
Comment: CMP_DACCR_VOSEL_SHIFT unused
CMP_DACCR_VRSEL_MASK 00000040

Symbol: CMP_DACCR_VRSEL_MASK
   Definitions
      At line 565 in file MKL05Z4.s
   Uses
      None
Comment: CMP_DACCR_VRSEL_MASK unused
CMP_DACCR_VRSEL_SHIFT 00000006

Symbol: CMP_DACCR_VRSEL_SHIFT



ARM Macro Assembler    Page 26 Alphabetic symbol ordering
Absolute symbols

   Definitions
      At line 566 in file MKL05Z4.s
   Uses
      None
Comment: CMP_DACCR_VRSEL_SHIFT unused
CMP_FPR_FILT_PER_MASK 000000FF

Symbol: CMP_FPR_FILT_PER_MASK
   Definitions
      At line 531 in file MKL05Z4.s
   Uses
      None
Comment: CMP_FPR_FILT_PER_MASK unused
CMP_FPR_FILT_PER_SHIFT 00000000

Symbol: CMP_FPR_FILT_PER_SHIFT
   Definitions
      At line 532 in file MKL05Z4.s
   Uses
      None
Comment: CMP_FPR_FILT_PER_SHIFT unused
CMP_MUXCR_MSEL_MASK 00000007

Symbol: CMP_MUXCR_MSEL_MASK
   Definitions
      At line 577 in file MKL05Z4.s
   Uses
      None
Comment: CMP_MUXCR_MSEL_MASK unused
CMP_MUXCR_MSEL_SHIFT 00000000

Symbol: CMP_MUXCR_MSEL_SHIFT
   Definitions
      At line 578 in file MKL05Z4.s
   Uses
      None
Comment: CMP_MUXCR_MSEL_SHIFT unused
CMP_MUXCR_PSEL_MASK 00000038

Symbol: CMP_MUXCR_PSEL_MASK
   Definitions
      At line 579 in file MKL05Z4.s
   Uses
      None
Comment: CMP_MUXCR_PSEL_MASK unused
CMP_MUXCR_PSEL_SHIFT 00000003

Symbol: CMP_MUXCR_PSEL_SHIFT
   Definitions
      At line 580 in file MKL05Z4.s
   Uses
      None
Comment: CMP_MUXCR_PSEL_SHIFT unused
CMP_MUXCR_PSTM_MASK 00000080

Symbol: CMP_MUXCR_PSTM_MASK
   Definitions
      At line 581 in file MKL05Z4.s
   Uses



ARM Macro Assembler    Page 27 Alphabetic symbol ordering
Absolute symbols

      None
Comment: CMP_MUXCR_PSTM_MASK unused
CMP_MUXCR_PSTM_SHIFT 00000007

Symbol: CMP_MUXCR_PSTM_SHIFT
   Definitions
      At line 582 in file MKL05Z4.s
   Uses
      None
Comment: CMP_MUXCR_PSTM_SHIFT unused
CMP_SCR_CFF_MASK 00000002

Symbol: CMP_SCR_CFF_MASK
   Definitions
      At line 545 in file MKL05Z4.s
   Uses
      None
Comment: CMP_SCR_CFF_MASK unused
CMP_SCR_CFF_SHIFT 00000001

Symbol: CMP_SCR_CFF_SHIFT
   Definitions
      At line 546 in file MKL05Z4.s
   Uses
      None
Comment: CMP_SCR_CFF_SHIFT unused
CMP_SCR_CFR_MASK 00000004

Symbol: CMP_SCR_CFR_MASK
   Definitions
      At line 547 in file MKL05Z4.s
   Uses
      None
Comment: CMP_SCR_CFR_MASK unused
CMP_SCR_CFR_SHIFT 00000002

Symbol: CMP_SCR_CFR_SHIFT
   Definitions
      At line 548 in file MKL05Z4.s
   Uses
      None
Comment: CMP_SCR_CFR_SHIFT unused
CMP_SCR_COUT_MASK 00000001

Symbol: CMP_SCR_COUT_MASK
   Definitions
      At line 543 in file MKL05Z4.s
   Uses
      None
Comment: CMP_SCR_COUT_MASK unused
CMP_SCR_COUT_SHIFT 00000000

Symbol: CMP_SCR_COUT_SHIFT
   Definitions
      At line 544 in file MKL05Z4.s
   Uses
      None
Comment: CMP_SCR_COUT_SHIFT unused
CMP_SCR_DMAEN_MASK 00000040



ARM Macro Assembler    Page 28 Alphabetic symbol ordering
Absolute symbols


Symbol: CMP_SCR_DMAEN_MASK
   Definitions
      At line 553 in file MKL05Z4.s
   Uses
      None
Comment: CMP_SCR_DMAEN_MASK unused
CMP_SCR_DMAEN_SHIFT 00000006

Symbol: CMP_SCR_DMAEN_SHIFT
   Definitions
      At line 554 in file MKL05Z4.s
   Uses
      None
Comment: CMP_SCR_DMAEN_SHIFT unused
CMP_SCR_IEF_MASK 00000008

Symbol: CMP_SCR_IEF_MASK
   Definitions
      At line 549 in file MKL05Z4.s
   Uses
      None
Comment: CMP_SCR_IEF_MASK unused
CMP_SCR_IEF_SHIFT 00000003

Symbol: CMP_SCR_IEF_SHIFT
   Definitions
      At line 550 in file MKL05Z4.s
   Uses
      None
Comment: CMP_SCR_IEF_SHIFT unused
CMP_SCR_IER_MASK 00000010

Symbol: CMP_SCR_IER_MASK
   Definitions
      At line 551 in file MKL05Z4.s
   Uses
      None
Comment: CMP_SCR_IER_MASK unused
CMP_SCR_IER_SHIFT 00000004

Symbol: CMP_SCR_IER_SHIFT
   Definitions
      At line 552 in file MKL05Z4.s
   Uses
      None
Comment: CMP_SCR_IER_SHIFT unused
CONTROL_SPSEL_MASK 00000002

Symbol: CONTROL_SPSEL_MASK
   Definitions
      At line 60 in file MKL05Z4.s
   Uses
      None
Comment: CONTROL_SPSEL_MASK unused
CONTROL_SPSEL_SHIFT 00000001

Symbol: CONTROL_SPSEL_SHIFT
   Definitions



ARM Macro Assembler    Page 29 Alphabetic symbol ordering
Absolute symbols

      At line 61 in file MKL05Z4.s
   Uses
      None
Comment: CONTROL_SPSEL_SHIFT unused
CONTROL_nPRIV_MASK 00000001

Symbol: CONTROL_nPRIV_MASK
   Definitions
      At line 62 in file MKL05Z4.s
   Uses
      None
Comment: CONTROL_nPRIV_MASK unused
CONTROL_nPRIV_SHIFT 00000000

Symbol: CONTROL_nPRIV_SHIFT
   Definitions
      At line 63 in file MKL05Z4.s
   Uses
      None
Comment: CONTROL_nPRIV_SHIFT unused
COP_COPCLKS_MASK 00000002

Symbol: COP_COPCLKS_MASK
   Definitions
      At line 2060 in file MKL05Z4.s
   Uses
      None
Comment: COP_COPCLKS_MASK unused
COP_COPCLKS_SHIFT 00000001

Symbol: COP_COPCLKS_SHIFT
   Definitions
      At line 2061 in file MKL05Z4.s
   Uses
      None
Comment: COP_COPCLKS_SHIFT unused
COP_COPT_MASK 0000000C

Symbol: COP_COPT_MASK
   Definitions
      At line 2058 in file MKL05Z4.s
   Uses
      None
Comment: COP_COPT_MASK unused
COP_COPT_SHIFT 00000002

Symbol: COP_COPT_SHIFT
   Definitions
      At line 2059 in file MKL05Z4.s
   Uses
      None
Comment: COP_COPT_SHIFT unused
COP_COPW_MASK 00000001

Symbol: COP_COPW_MASK
   Definitions
      At line 2062 in file MKL05Z4.s
   Uses
      None



ARM Macro Assembler    Page 30 Alphabetic symbol ordering
Absolute symbols

Comment: COP_COPW_MASK unused
COP_COPW_SHIFT 00000001

Symbol: COP_COPW_SHIFT
   Definitions
      At line 2063 in file MKL05Z4.s
   Uses
      None
Comment: COP_COPW_SHIFT unused
CR 0000000D

Symbol: CR
   Definitions
      At line 24 in file Ex_12.s
   Uses
      At line 1164 in file Ex_12.s
      At line 1428 in file Ex_12.s
      At line 1444 in file Ex_12.s

DAC0_BASE 4003F000

Symbol: DAC0_BASE
   Definitions
      At line 585 in file MKL05Z4.s
   Uses
      At line 598 in file MKL05Z4.s
      At line 599 in file MKL05Z4.s
      At line 600 in file MKL05Z4.s
      At line 601 in file MKL05Z4.s
      At line 603 in file MKL05Z4.s
      At line 604 in file MKL05Z4.s
      At line 605 in file MKL05Z4.s
      At line 606 in file MKL05Z4.s

DAC0_C0 4003F021

Symbol: DAC0_C0
   Definitions
      At line 604 in file MKL05Z4.s
   Uses
      None
Comment: DAC0_C0 unused
DAC0_C0_OFFSET 00000021

Symbol: DAC0_C0_OFFSET
   Definitions
      At line 594 in file MKL05Z4.s
   Uses
      At line 604 in file MKL05Z4.s
Comment: DAC0_C0_OFFSET used once
DAC0_C1 4003F022

Symbol: DAC0_C1
   Definitions
      At line 605 in file MKL05Z4.s
   Uses
      None
Comment: DAC0_C1 unused
DAC0_C1_OFFSET 00000022



ARM Macro Assembler    Page 31 Alphabetic symbol ordering
Absolute symbols


Symbol: DAC0_C1_OFFSET
   Definitions
      At line 595 in file MKL05Z4.s
   Uses
      At line 605 in file MKL05Z4.s
Comment: DAC0_C1_OFFSET used once
DAC0_C2 4003F023

Symbol: DAC0_C2
   Definitions
      At line 606 in file MKL05Z4.s
   Uses
      None
Comment: DAC0_C2 unused
DAC0_C2_OFFSET 00000023

Symbol: DAC0_C2_OFFSET
   Definitions
      At line 596 in file MKL05Z4.s
   Uses
      At line 606 in file MKL05Z4.s
Comment: DAC0_C2_OFFSET used once
DAC0_DAT0H 4003F001

Symbol: DAC0_DAT0H
   Definitions
      At line 599 in file MKL05Z4.s
   Uses
      None
Comment: DAC0_DAT0H unused
DAC0_DAT0H_OFFSET 00000001

Symbol: DAC0_DAT0H_OFFSET
   Definitions
      At line 589 in file MKL05Z4.s
   Uses
      At line 599 in file MKL05Z4.s
Comment: DAC0_DAT0H_OFFSET used once
DAC0_DAT0L 4003F000

Symbol: DAC0_DAT0L
   Definitions
      At line 598 in file MKL05Z4.s
   Uses
      None
Comment: DAC0_DAT0L unused
DAC0_DAT0L_OFFSET 00000000

Symbol: DAC0_DAT0L_OFFSET
   Definitions
      At line 588 in file MKL05Z4.s
   Uses
      At line 598 in file MKL05Z4.s
Comment: DAC0_DAT0L_OFFSET used once
DAC0_DAT1H 4003F003

Symbol: DAC0_DAT1H
   Definitions



ARM Macro Assembler    Page 32 Alphabetic symbol ordering
Absolute symbols

      At line 601 in file MKL05Z4.s
   Uses
      None
Comment: DAC0_DAT1H unused
DAC0_DAT1H_OFFSET 00000003

Symbol: DAC0_DAT1H_OFFSET
   Definitions
      At line 591 in file MKL05Z4.s
   Uses
      At line 601 in file MKL05Z4.s
Comment: DAC0_DAT1H_OFFSET used once
DAC0_DAT1L 4003F002

Symbol: DAC0_DAT1L
   Definitions
      At line 600 in file MKL05Z4.s
   Uses
      None
Comment: DAC0_DAT1L unused
DAC0_DAT1L_OFFSET 00000002

Symbol: DAC0_DAT1L_OFFSET
   Definitions
      At line 590 in file MKL05Z4.s
   Uses
      At line 600 in file MKL05Z4.s
Comment: DAC0_DAT1L_OFFSET used once
DAC0_IPR E000E418

Symbol: DAC0_IPR
   Definitions
      At line 1463 in file MKL05Z4.s
   Uses
      None
Comment: DAC0_IPR unused
DAC0_IRQ_MASK 02000000

Symbol: DAC0_IRQ_MASK
   Definitions
      At line 1533 in file MKL05Z4.s
   Uses
      None
Comment: DAC0_IRQ_MASK unused
DAC0_IRQn 00000019

Symbol: DAC0_IRQn
   Definitions
      At line 182 in file MKL05Z4.s
   Uses
      At line 1533 in file MKL05Z4.s
Comment: DAC0_IRQn used once
DAC0_PRI_POS 0000000E

Symbol: DAC0_PRI_POS
   Definitions
      At line 1499 in file MKL05Z4.s
   Uses
      None



ARM Macro Assembler    Page 33 Alphabetic symbol ordering
Absolute symbols

Comment: DAC0_PRI_POS unused
DAC0_SR 4003F020

Symbol: DAC0_SR
   Definitions
      At line 603 in file MKL05Z4.s
   Uses
      None
Comment: DAC0_SR unused
DAC0_SR_OFFSET 00000020

Symbol: DAC0_SR_OFFSET
   Definitions
      At line 593 in file MKL05Z4.s
   Uses
      At line 603 in file MKL05Z4.s
Comment: DAC0_SR_OFFSET used once
DAC0_Vector 00000029

Symbol: DAC0_Vector
   Definitions
      At line 1584 in file MKL05Z4.s
   Uses
      None
Comment: DAC0_Vector unused
DAC_C0_DACBBIEN_MASK 00000001

Symbol: DAC_C0_DACBBIEN_MASK
   Definitions
      At line 676 in file MKL05Z4.s
   Uses
      None
Comment: DAC_C0_DACBBIEN_MASK unused
DAC_C0_DACBBIEN_SHIFT 00000000

Symbol: DAC_C0_DACBBIEN_SHIFT
   Definitions
      At line 677 in file MKL05Z4.s
   Uses
      None
Comment: DAC_C0_DACBBIEN_SHIFT unused
DAC_C0_DACBTIEN_MASK 00000002

Symbol: DAC_C0_DACBTIEN_MASK
   Definitions
      At line 674 in file MKL05Z4.s
   Uses
      None
Comment: DAC_C0_DACBTIEN_MASK unused
DAC_C0_DACBTIEN_SHIFT 00000001

Symbol: DAC_C0_DACBTIEN_SHIFT
   Definitions
      At line 675 in file MKL05Z4.s
   Uses
      None
Comment: DAC_C0_DACBTIEN_SHIFT unused
DAC_C0_DACEN_MASK 00000080




ARM Macro Assembler    Page 34 Alphabetic symbol ordering
Absolute symbols

Symbol: DAC_C0_DACEN_MASK
   Definitions
      At line 664 in file MKL05Z4.s
   Uses
      None
Comment: DAC_C0_DACEN_MASK unused
DAC_C0_DACEN_SHIFT 00000007

Symbol: DAC_C0_DACEN_SHIFT
   Definitions
      At line 665 in file MKL05Z4.s
   Uses
      None
Comment: DAC_C0_DACEN_SHIFT unused
DAC_C0_DACRFS_MASK 00000040

Symbol: DAC_C0_DACRFS_MASK
   Definitions
      At line 666 in file MKL05Z4.s
   Uses
      None
Comment: DAC_C0_DACRFS_MASK unused
DAC_C0_DACRFS_SHIFT 00000006

Symbol: DAC_C0_DACRFS_SHIFT
   Definitions
      At line 667 in file MKL05Z4.s
   Uses
      None
Comment: DAC_C0_DACRFS_SHIFT unused
DAC_C0_DACSWTRG_MASK 00000010

Symbol: DAC_C0_DACSWTRG_MASK
   Definitions
      At line 670 in file MKL05Z4.s
   Uses
      None
Comment: DAC_C0_DACSWTRG_MASK unused
DAC_C0_DACSWTRG_SHIFT 00000004

Symbol: DAC_C0_DACSWTRG_SHIFT
   Definitions
      At line 671 in file MKL05Z4.s
   Uses
      None
Comment: DAC_C0_DACSWTRG_SHIFT unused
DAC_C0_DACTRGSEL_MASK 00000020

Symbol: DAC_C0_DACTRGSEL_MASK
   Definitions
      At line 668 in file MKL05Z4.s
   Uses
      None
Comment: DAC_C0_DACTRGSEL_MASK unused
DAC_C0_DACTRGSEL_SHIFT 00000005

Symbol: DAC_C0_DACTRGSEL_SHIFT
   Definitions
      At line 669 in file MKL05Z4.s



ARM Macro Assembler    Page 35 Alphabetic symbol ordering
Absolute symbols

   Uses
      None
Comment: DAC_C0_DACTRGSEL_SHIFT unused
DAC_C0_LPEN_MASK 00000008

Symbol: DAC_C0_LPEN_MASK
   Definitions
      At line 672 in file MKL05Z4.s
   Uses
      None
Comment: DAC_C0_LPEN_MASK unused
DAC_C0_LPEN_SHIFT 00000003

Symbol: DAC_C0_LPEN_SHIFT
   Definitions
      At line 673 in file MKL05Z4.s
   Uses
      None
Comment: DAC_C0_LPEN_SHIFT unused
DAC_C1_DACBFEN_MASK 00000001

Symbol: DAC_C1_DACBFEN_MASK
   Definitions
      At line 693 in file MKL05Z4.s
   Uses
      None
Comment: DAC_C1_DACBFEN_MASK unused
DAC_C1_DACBFEN_SHIFT 00000000

Symbol: DAC_C1_DACBFEN_SHIFT
   Definitions
      At line 694 in file MKL05Z4.s
   Uses
      None
Comment: DAC_C1_DACBFEN_SHIFT unused
DAC_C1_DACBFMD_MASK 00000004

Symbol: DAC_C1_DACBFMD_MASK
   Definitions
      At line 691 in file MKL05Z4.s
   Uses
      None
Comment: DAC_C1_DACBFMD_MASK unused
DAC_C1_DACBFMD_SHIFT 00000002

Symbol: DAC_C1_DACBFMD_SHIFT
   Definitions
      At line 692 in file MKL05Z4.s
   Uses
      None
Comment: DAC_C1_DACBFMD_SHIFT unused
DAC_C1_DMAEN_MASK 00000080

Symbol: DAC_C1_DMAEN_MASK
   Definitions
      At line 689 in file MKL05Z4.s
   Uses
      None
Comment: DAC_C1_DMAEN_MASK unused



ARM Macro Assembler    Page 36 Alphabetic symbol ordering
Absolute symbols

DAC_C1_DMAEN_SHIFT 00000007

Symbol: DAC_C1_DMAEN_SHIFT
   Definitions
      At line 690 in file MKL05Z4.s
   Uses
      None
Comment: DAC_C1_DMAEN_SHIFT unused
DAC_C2_DACBFRP_MASK 00000010

Symbol: DAC_C2_DACBFRP_MASK
   Definitions
      At line 701 in file MKL05Z4.s
   Uses
      None
Comment: DAC_C2_DACBFRP_MASK unused
DAC_C2_DACBFRP_SHIFT 00000004

Symbol: DAC_C2_DACBFRP_SHIFT
   Definitions
      At line 702 in file MKL05Z4.s
   Uses
      None
Comment: DAC_C2_DACBFRP_SHIFT unused
DAC_C2_DACBFUP_MASK 00000001

Symbol: DAC_C2_DACBFUP_MASK
   Definitions
      At line 703 in file MKL05Z4.s
   Uses
      None
Comment: DAC_C2_DACBFUP_MASK unused
DAC_C2_DACBFUP_SHIFT 00000000

Symbol: DAC_C2_DACBFUP_SHIFT
   Definitions
      At line 704 in file MKL05Z4.s
   Uses
      None
Comment: DAC_C2_DACBFUP_SHIFT unused
DAC_DAT0H_MASK 0000000F

Symbol: DAC_DAT0H_MASK
   Definitions
      At line 612 in file MKL05Z4.s
   Uses
      None
Comment: DAC_DAT0H_MASK unused
DAC_DAT0H_SHIFT 00000000

Symbol: DAC_DAT0H_SHIFT
   Definitions
      At line 613 in file MKL05Z4.s
   Uses
      None
Comment: DAC_DAT0H_SHIFT unused
DAC_DAT0L_MASK 000000FF

Symbol: DAC_DAT0L_MASK



ARM Macro Assembler    Page 37 Alphabetic symbol ordering
Absolute symbols

   Definitions
      At line 618 in file MKL05Z4.s
   Uses
      None
Comment: DAC_DAT0L_MASK unused
DAC_DAT0L_SHIFT 00000000

Symbol: DAC_DAT0L_SHIFT
   Definitions
      At line 619 in file MKL05Z4.s
   Uses
      None
Comment: DAC_DAT0L_SHIFT unused
DAC_DAT1H_MASK 0000000F

Symbol: DAC_DAT1H_MASK
   Definitions
      At line 625 in file MKL05Z4.s
   Uses
      None
Comment: DAC_DAT1H_MASK unused
DAC_DAT1H_SHIFT 00000000

Symbol: DAC_DAT1H_SHIFT
   Definitions
      At line 626 in file MKL05Z4.s
   Uses
      None
Comment: DAC_DAT1H_SHIFT unused
DAC_DAT1L_MASK 000000FF

Symbol: DAC_DAT1L_MASK
   Definitions
      At line 631 in file MKL05Z4.s
   Uses
      None
Comment: DAC_DAT1L_MASK unused
DAC_DAT1L_SHIFT 00000000

Symbol: DAC_DAT1L_SHIFT
   Definitions
      At line 632 in file MKL05Z4.s
   Uses
      None
Comment: DAC_DAT1L_SHIFT unused
DAC_SR_DACBFRPBF_MASK 00000001

Symbol: DAC_SR_DACBFRPBF_MASK
   Definitions
      At line 715 in file MKL05Z4.s
   Uses
      None
Comment: DAC_SR_DACBFRPBF_MASK unused
DAC_SR_DACBFRPBF_SHIFT 00000000

Symbol: DAC_SR_DACBFRPBF_SHIFT
   Definitions
      At line 716 in file MKL05Z4.s
   Uses



ARM Macro Assembler    Page 38 Alphabetic symbol ordering
Absolute symbols

      None
Comment: DAC_SR_DACBFRPBF_SHIFT unused
DAC_SR_DACBFRPTF_MASK 00000002

Symbol: DAC_SR_DACBFRPTF_MASK
   Definitions
      At line 713 in file MKL05Z4.s
   Uses
      None
Comment: DAC_SR_DACBFRPTF_MASK unused
DAC_SR_DACBFRPTF_SHIFT 00000001

Symbol: DAC_SR_DACBFRPTF_SHIFT
   Definitions
      At line 714 in file MKL05Z4.s
   Uses
      None
Comment: DAC_SR_DACBFRPTF_SHIFT unused
DMA0_IPR E000E400

Symbol: DMA0_IPR
   Definitions
      At line 1438 in file MKL05Z4.s
   Uses
      None
Comment: DMA0_IPR unused
DMA0_IRQ_MASK 00000001

Symbol: DMA0_IRQ_MASK
   Definitions
      At line 1508 in file MKL05Z4.s
   Uses
      None
Comment: DMA0_IRQ_MASK unused
DMA0_IRQn 00000000

Symbol: DMA0_IRQn
   Definitions
      At line 157 in file MKL05Z4.s
   Uses
      At line 1508 in file MKL05Z4.s
Comment: DMA0_IRQn used once
DMA0_PRI_POS 00000006

Symbol: DMA0_PRI_POS
   Definitions
      At line 1474 in file MKL05Z4.s
   Uses
      None
Comment: DMA0_PRI_POS unused
DMA0_Vector 00000010

Symbol: DMA0_Vector
   Definitions
      At line 1559 in file MKL05Z4.s
   Uses
      None
Comment: DMA0_Vector unused
DMA1_IPR E000E400



ARM Macro Assembler    Page 39 Alphabetic symbol ordering
Absolute symbols


Symbol: DMA1_IPR
   Definitions
      At line 1439 in file MKL05Z4.s
   Uses
      None
Comment: DMA1_IPR unused
DMA1_IRQ_MASK 00000002

Symbol: DMA1_IRQ_MASK
   Definitions
      At line 1509 in file MKL05Z4.s
   Uses
      None
Comment: DMA1_IRQ_MASK unused
DMA1_IRQn 00000001

Symbol: DMA1_IRQn
   Definitions
      At line 158 in file MKL05Z4.s
   Uses
      At line 1509 in file MKL05Z4.s
Comment: DMA1_IRQn used once
DMA1_PRI_POS 0000000E

Symbol: DMA1_PRI_POS
   Definitions
      At line 1475 in file MKL05Z4.s
   Uses
      None
Comment: DMA1_PRI_POS unused
DMA1_Vector 00000011

Symbol: DMA1_Vector
   Definitions
      At line 1560 in file MKL05Z4.s
   Uses
      None
Comment: DMA1_Vector unused
DMA2_IPR E000E400

Symbol: DMA2_IPR
   Definitions
      At line 1440 in file MKL05Z4.s
   Uses
      None
Comment: DMA2_IPR unused
DMA2_IRQ_MASK 00000004

Symbol: DMA2_IRQ_MASK
   Definitions
      At line 1510 in file MKL05Z4.s
   Uses
      None
Comment: DMA2_IRQ_MASK unused
DMA2_IRQn 00000002

Symbol: DMA2_IRQn
   Definitions



ARM Macro Assembler    Page 40 Alphabetic symbol ordering
Absolute symbols

      At line 159 in file MKL05Z4.s
   Uses
      At line 1510 in file MKL05Z4.s
Comment: DMA2_IRQn used once
DMA2_PRI_POS 00000016

Symbol: DMA2_PRI_POS
   Definitions
      At line 1476 in file MKL05Z4.s
   Uses
      None
Comment: DMA2_PRI_POS unused
DMA2_Vector 00000012

Symbol: DMA2_Vector
   Definitions
      At line 1561 in file MKL05Z4.s
   Uses
      None
Comment: DMA2_Vector unused
DMA3_IPR E000E400

Symbol: DMA3_IPR
   Definitions
      At line 1441 in file MKL05Z4.s
   Uses
      None
Comment: DMA3_IPR unused
DMA3_IRQ_MASK 00000008

Symbol: DMA3_IRQ_MASK
   Definitions
      At line 1511 in file MKL05Z4.s
   Uses
      None
Comment: DMA3_IRQ_MASK unused
DMA3_IRQn 00000003

Symbol: DMA3_IRQn
   Definitions
      At line 160 in file MKL05Z4.s
   Uses
      At line 1511 in file MKL05Z4.s
Comment: DMA3_IRQn used once
DMA3_PRI_POS 0000001E

Symbol: DMA3_PRI_POS
   Definitions
      At line 1477 in file MKL05Z4.s
   Uses
      None
Comment: DMA3_PRI_POS unused
DMA3_Vector 00000013

Symbol: DMA3_Vector
   Definitions
      At line 1562 in file MKL05Z4.s
   Uses
      None



ARM Macro Assembler    Page 41 Alphabetic symbol ordering
Absolute symbols

Comment: DMA3_Vector unused
D_ascii 00000044

Symbol: D_ascii
   Definitions
      At line 38 in file Ex_12.s
   Uses
      At line 493 in file Ex_12.s
Comment: D_ascii used once
EPSR_MASK 01000000

Symbol: EPSR_MASK
   Definitions
      At line 99 in file MKL05Z4.s
   Uses
      None
Comment: EPSR_MASK unused
EPSR_SHIFT 00000018

Symbol: EPSR_SHIFT
   Definitions
      At line 100 in file MKL05Z4.s
   Uses
      None
Comment: EPSR_SHIFT unused
EPSR_T_MASK 01000000

Symbol: EPSR_T_MASK
   Definitions
      At line 101 in file MKL05Z4.s
   Uses
      At line 133 in file MKL05Z4.s
Comment: EPSR_T_MASK used once
EPSR_T_SHIFT 00000018

Symbol: EPSR_T_SHIFT
   Definitions
      At line 102 in file MKL05Z4.s
   Uses
      At line 134 in file MKL05Z4.s
Comment: EPSR_T_SHIFT used once
E_ascii 00000045

Symbol: E_ascii
   Definitions
      At line 39 in file Ex_12.s
   Uses
      At line 521 in file Ex_12.s
Comment: E_ascii used once
FCF_BACKDOOR_KEY0 000000FF

Symbol: FCF_BACKDOOR_KEY0
   Definitions
      At line 728 in file MKL05Z4.s
   Uses
      None
Comment: FCF_BACKDOOR_KEY0 unused
FCF_BACKDOOR_KEY1 000000FF




ARM Macro Assembler    Page 42 Alphabetic symbol ordering
Absolute symbols

Symbol: FCF_BACKDOOR_KEY1
   Definitions
      At line 733 in file MKL05Z4.s
   Uses
      None
Comment: FCF_BACKDOOR_KEY1 unused
FCF_BACKDOOR_KEY2 000000FF

Symbol: FCF_BACKDOOR_KEY2
   Definitions
      At line 738 in file MKL05Z4.s
   Uses
      None
Comment: FCF_BACKDOOR_KEY2 unused
FCF_BACKDOOR_KEY3 000000FF

Symbol: FCF_BACKDOOR_KEY3
   Definitions
      At line 743 in file MKL05Z4.s
   Uses
      None
Comment: FCF_BACKDOOR_KEY3 unused
FCF_BACKDOOR_KEY4 000000FF

Symbol: FCF_BACKDOOR_KEY4
   Definitions
      At line 748 in file MKL05Z4.s
   Uses
      None
Comment: FCF_BACKDOOR_KEY4 unused
FCF_BACKDOOR_KEY5 000000FF

Symbol: FCF_BACKDOOR_KEY5
   Definitions
      At line 753 in file MKL05Z4.s
   Uses
      None
Comment: FCF_BACKDOOR_KEY5 unused
FCF_BACKDOOR_KEY6 000000FF

Symbol: FCF_BACKDOOR_KEY6
   Definitions
      At line 758 in file MKL05Z4.s
   Uses
      None
Comment: FCF_BACKDOOR_KEY6 unused
FCF_BACKDOOR_KEY7 000000FF

Symbol: FCF_BACKDOOR_KEY7
   Definitions
      At line 763 in file MKL05Z4.s
   Uses
      None
Comment: FCF_BACKDOOR_KEY7 unused
FCF_FOPT 000000FF

Symbol: FCF_FOPT
   Definitions
      At line 775 in file MKL05Z4.s



ARM Macro Assembler    Page 43 Alphabetic symbol ordering
Absolute symbols

   Uses
      None
Comment: FCF_FOPT unused
FCF_FPROT0 000000FF

Symbol: FCF_FPROT0
   Definitions
      At line 791 in file MKL05Z4.s
   Uses
      None
Comment: FCF_FPROT0 unused
FCF_FPROT1 000000FF

Symbol: FCF_FPROT1
   Definitions
      At line 804 in file MKL05Z4.s
   Uses
      None
Comment: FCF_FPROT1 unused
FCF_FPROT2 000000FF

Symbol: FCF_FPROT2
   Definitions
      At line 817 in file MKL05Z4.s
   Uses
      None
Comment: FCF_FPROT2 unused
FCF_FPROT3 000000FF

Symbol: FCF_FPROT3
   Definitions
      At line 830 in file MKL05Z4.s
   Uses
      None
Comment: FCF_FPROT3 unused
FCF_FSEC 0000007E

Symbol: FCF_FSEC
   Definitions
      At line 861 in file MKL05Z4.s
   Uses
      None
Comment: FCF_FSEC unused
FGPIOA_BASE F80FF000

Symbol: FGPIOA_BASE
   Definitions
      At line 888 in file MKL05Z4.s
   Uses
      At line 889 in file MKL05Z4.s
      At line 890 in file MKL05Z4.s
      At line 891 in file MKL05Z4.s
      At line 892 in file MKL05Z4.s
      At line 893 in file MKL05Z4.s
      At line 894 in file MKL05Z4.s

FGPIOA_PCOR F80FF008

Symbol: FGPIOA_PCOR



ARM Macro Assembler    Page 44 Alphabetic symbol ordering
Absolute symbols

   Definitions
      At line 891 in file MKL05Z4.s
   Uses
      None
Comment: FGPIOA_PCOR unused
FGPIOA_PDDR F80FF014

Symbol: FGPIOA_PDDR
   Definitions
      At line 894 in file MKL05Z4.s
   Uses
      None
Comment: FGPIOA_PDDR unused
FGPIOA_PDIR F80FF010

Symbol: FGPIOA_PDIR
   Definitions
      At line 893 in file MKL05Z4.s
   Uses
      None
Comment: FGPIOA_PDIR unused
FGPIOA_PDOR F80FF000

Symbol: FGPIOA_PDOR
   Definitions
      At line 889 in file MKL05Z4.s
   Uses
      None
Comment: FGPIOA_PDOR unused
FGPIOA_PSOR F80FF004

Symbol: FGPIOA_PSOR
   Definitions
      At line 890 in file MKL05Z4.s
   Uses
      None
Comment: FGPIOA_PSOR unused
FGPIOA_PTOR F80FF00C

Symbol: FGPIOA_PTOR
   Definitions
      At line 892 in file MKL05Z4.s
   Uses
      None
Comment: FGPIOA_PTOR unused
FGPIOB_BASE F80FF040

Symbol: FGPIOB_BASE
   Definitions
      At line 896 in file MKL05Z4.s
   Uses
      At line 897 in file MKL05Z4.s
      At line 898 in file MKL05Z4.s
      At line 899 in file MKL05Z4.s
      At line 900 in file MKL05Z4.s
      At line 901 in file MKL05Z4.s
      At line 902 in file MKL05Z4.s
      At line 641 in file Ex_12.s
      At line 652 in file Ex_12.s



ARM Macro Assembler    Page 45 Alphabetic symbol ordering
Absolute symbols

      At line 670 in file Ex_12.s
      At line 682 in file Ex_12.s
      At line 694 in file Ex_12.s
      At line 706 in file Ex_12.s
      At line 718 in file Ex_12.s
      At line 785 in file Ex_12.s
      At line 812 in file Ex_12.s
      At line 871 in file Ex_12.s
      At line 900 in file Ex_12.s
      At line 952 in file Ex_12.s
      At line 982 in file Ex_12.s

FGPIOB_PCOR F80FF048

Symbol: FGPIOB_PCOR
   Definitions
      At line 899 in file MKL05Z4.s
   Uses
      None
Comment: FGPIOB_PCOR unused
FGPIOB_PDDR F80FF054

Symbol: FGPIOB_PDDR
   Definitions
      At line 902 in file MKL05Z4.s
   Uses
      None
Comment: FGPIOB_PDDR unused
FGPIOB_PDIR F80FF050

Symbol: FGPIOB_PDIR
   Definitions
      At line 901 in file MKL05Z4.s
   Uses
      None
Comment: FGPIOB_PDIR unused
FGPIOB_PDOR F80FF040

Symbol: FGPIOB_PDOR
   Definitions
      At line 897 in file MKL05Z4.s
   Uses
      None
Comment: FGPIOB_PDOR unused
FGPIOB_PSOR F80FF044

Symbol: FGPIOB_PSOR
   Definitions
      At line 898 in file MKL05Z4.s
   Uses
      None
Comment: FGPIOB_PSOR unused
FGPIOB_PTOR F80FF04C

Symbol: FGPIOB_PTOR
   Definitions
      At line 900 in file MKL05Z4.s
   Uses
      None



ARM Macro Assembler    Page 46 Alphabetic symbol ordering
Absolute symbols

Comment: FGPIOB_PTOR unused
FGPIO_BASE F80FF000

Symbol: FGPIO_BASE
   Definitions
      At line 878 in file MKL05Z4.s
   Uses
      None
Comment: FGPIO_BASE unused
FGPIO_PCOR_OFFSET 00000008

Symbol: FGPIO_PCOR_OFFSET
   Definitions
      At line 881 in file MKL05Z4.s
   Uses
      None
Comment: FGPIO_PCOR_OFFSET unused
FGPIO_PDDR_OFFSET 00000014

Symbol: FGPIO_PDDR_OFFSET
   Definitions
      At line 884 in file MKL05Z4.s
   Uses
      None
Comment: FGPIO_PDDR_OFFSET unused
FGPIO_PDIR_OFFSET 00000010

Symbol: FGPIO_PDIR_OFFSET
   Definitions
      At line 883 in file MKL05Z4.s
   Uses
      None
Comment: FGPIO_PDIR_OFFSET unused
FGPIO_PDOR_OFFSET 00000000

Symbol: FGPIO_PDOR_OFFSET
   Definitions
      At line 879 in file MKL05Z4.s
   Uses
      None
Comment: FGPIO_PDOR_OFFSET unused
FGPIO_PSOR_OFFSET 00000004

Symbol: FGPIO_PSOR_OFFSET
   Definitions
      At line 880 in file MKL05Z4.s
   Uses
      None
Comment: FGPIO_PSOR_OFFSET unused
FGPIO_PTOR_OFFSET 0000000C

Symbol: FGPIO_PTOR_OFFSET
   Definitions
      At line 882 in file MKL05Z4.s
   Uses
      None
Comment: FGPIO_PTOR_OFFSET unused
FOPT 000000FF




ARM Macro Assembler    Page 47 Alphabetic symbol ordering
Absolute symbols

Symbol: FOPT
   Definitions
      At line 776 in file MKL05Z4.s
   Uses
      None
Comment: FOPT unused
FPROT0 000000FF

Symbol: FPROT0
   Definitions
      At line 793 in file MKL05Z4.s
   Uses
      None
Comment: FPROT0 unused
FPROT1 000000FF

Symbol: FPROT1
   Definitions
      At line 806 in file MKL05Z4.s
   Uses
      None
Comment: FPROT1 unused
FPROT2 000000FF

Symbol: FPROT2
   Definitions
      At line 819 in file MKL05Z4.s
   Uses
      None
Comment: FPROT2 unused
FPROT3 000000FF

Symbol: FPROT3
   Definitions
      At line 832 in file MKL05Z4.s
   Uses
      None
Comment: FPROT3 unused
FPTA_BASE F80FF000

Symbol: FPTA_BASE
   Definitions
      At line 931 in file MKL05Z4.s
   Uses
      At line 932 in file MKL05Z4.s
      At line 933 in file MKL05Z4.s
      At line 934 in file MKL05Z4.s
      At line 935 in file MKL05Z4.s
      At line 936 in file MKL05Z4.s
      At line 937 in file MKL05Z4.s

FPTA_OFFSET 00000000

Symbol: FPTA_OFFSET
   Definitions
      At line 928 in file MKL05Z4.s
   Uses
      None
Comment: FPTA_OFFSET unused



ARM Macro Assembler    Page 48 Alphabetic symbol ordering
Absolute symbols

FPTA_PCOR F80FF008

Symbol: FPTA_PCOR
   Definitions
      At line 934 in file MKL05Z4.s
   Uses
      None
Comment: FPTA_PCOR unused
FPTA_PDDR F80FF014

Symbol: FPTA_PDDR
   Definitions
      At line 937 in file MKL05Z4.s
   Uses
      None
Comment: FPTA_PDDR unused
FPTA_PDIR F80FF010

Symbol: FPTA_PDIR
   Definitions
      At line 936 in file MKL05Z4.s
   Uses
      None
Comment: FPTA_PDIR unused
FPTA_PDOR F80FF000

Symbol: FPTA_PDOR
   Definitions
      At line 933 in file MKL05Z4.s
   Uses
      None
Comment: FPTA_PDOR unused
FPTA_PSOR F80FF004

Symbol: FPTA_PSOR
   Definitions
      At line 932 in file MKL05Z4.s
   Uses
      None
Comment: FPTA_PSOR unused
FPTA_PTOR F80FF00C

Symbol: FPTA_PTOR
   Definitions
      At line 935 in file MKL05Z4.s
   Uses
      None
Comment: FPTA_PTOR unused
FPTB_BASE F80FF040

Symbol: FPTB_BASE
   Definitions
      At line 939 in file MKL05Z4.s
   Uses
      At line 940 in file MKL05Z4.s
      At line 941 in file MKL05Z4.s
      At line 942 in file MKL05Z4.s
      At line 943 in file MKL05Z4.s
      At line 944 in file MKL05Z4.s



ARM Macro Assembler    Page 49 Alphabetic symbol ordering
Absolute symbols

      At line 945 in file MKL05Z4.s

FPTB_OFFSET 00000040

Symbol: FPTB_OFFSET
   Definitions
      At line 929 in file MKL05Z4.s
   Uses
      None
Comment: FPTB_OFFSET unused
FPTB_PCOR F80FF048

Symbol: FPTB_PCOR
   Definitions
      At line 942 in file MKL05Z4.s
   Uses
      None
Comment: FPTB_PCOR unused
FPTB_PDDR F80FF054

Symbol: FPTB_PDDR
   Definitions
      At line 945 in file MKL05Z4.s
   Uses
      None
Comment: FPTB_PDDR unused
FPTB_PDIR F80FF050

Symbol: FPTB_PDIR
   Definitions
      At line 944 in file MKL05Z4.s
   Uses
      None
Comment: FPTB_PDIR unused
FPTB_PDOR F80FF040

Symbol: FPTB_PDOR
   Definitions
      At line 940 in file MKL05Z4.s
   Uses
      None
Comment: FPTB_PDOR unused
FPTB_PSOR F80FF044

Symbol: FPTB_PSOR
   Definitions
      At line 941 in file MKL05Z4.s
   Uses
      None
Comment: FPTB_PSOR unused
FPTB_PTOR F80FF04C

Symbol: FPTB_PTOR
   Definitions
      At line 943 in file MKL05Z4.s
   Uses
      None
Comment: FPTB_PTOR unused
FPT_BASE F80FF000



ARM Macro Assembler    Page 50 Alphabetic symbol ordering
Absolute symbols


Symbol: FPT_BASE
   Definitions
      At line 921 in file MKL05Z4.s
   Uses
      None
Comment: FPT_BASE unused
FPT_PCOR_OFFSET 00000008

Symbol: FPT_PCOR_OFFSET
   Definitions
      At line 924 in file MKL05Z4.s
   Uses
      At line 934 in file MKL05Z4.s
      At line 942 in file MKL05Z4.s

FPT_PDDR_OFFSET 00000014

Symbol: FPT_PDDR_OFFSET
   Definitions
      At line 927 in file MKL05Z4.s
   Uses
      At line 937 in file MKL05Z4.s
      At line 945 in file MKL05Z4.s

FPT_PDIR_OFFSET 00000010

Symbol: FPT_PDIR_OFFSET
   Definitions
      At line 926 in file MKL05Z4.s
   Uses
      At line 936 in file MKL05Z4.s
      At line 944 in file MKL05Z4.s

FPT_PDOR_OFFSET 00000000

Symbol: FPT_PDOR_OFFSET
   Definitions
      At line 922 in file MKL05Z4.s
   Uses
      At line 933 in file MKL05Z4.s
      At line 940 in file MKL05Z4.s

FPT_PSOR_OFFSET 00000004

Symbol: FPT_PSOR_OFFSET
   Definitions
      At line 923 in file MKL05Z4.s
   Uses
      At line 932 in file MKL05Z4.s
      At line 941 in file MKL05Z4.s

FPT_PTOR_OFFSET 0000000C

Symbol: FPT_PTOR_OFFSET
   Definitions
      At line 925 in file MKL05Z4.s
   Uses
      At line 935 in file MKL05Z4.s



ARM Macro Assembler    Page 51 Alphabetic symbol ordering
Absolute symbols

      At line 943 in file MKL05Z4.s

FSEC 000000FE

Symbol: FSEC
   Definitions
      At line 862 in file MKL05Z4.s
   Uses
      None
Comment: FSEC unused
FTFA_FlashConfig_BACKKEY0 00000403

Symbol: FTFA_FlashConfig_BACKKEY0
   Definitions
      At line 968 in file MKL05Z4.s
   Uses
      None
Comment: FTFA_FlashConfig_BACKKEY0 unused
FTFA_FlashConfig_BACKKEY0_KEY_MASK 000000FF

Symbol: FTFA_FlashConfig_BACKKEY0_KEY_MASK
   Definitions
      At line 993 in file MKL05Z4.s
   Uses
      None
Comment: FTFA_FlashConfig_BACKKEY0_KEY_MASK unused
FTFA_FlashConfig_BACKKEY0_KEY_SHIFT 00000000

Symbol: FTFA_FlashConfig_BACKKEY0_KEY_SHIFT
   Definitions
      At line 994 in file MKL05Z4.s
   Uses
      None
Comment: FTFA_FlashConfig_BACKKEY0_KEY_SHIFT unused
FTFA_FlashConfig_BACKKEY0_OFFSET 00000003

Symbol: FTFA_FlashConfig_BACKKEY0_OFFSET
   Definitions
      At line 954 in file MKL05Z4.s
   Uses
      At line 968 in file MKL05Z4.s
Comment: FTFA_FlashConfig_BACKKEY0_OFFSET used once
FTFA_FlashConfig_BACKKEY1 00000402

Symbol: FTFA_FlashConfig_BACKKEY1
   Definitions
      At line 967 in file MKL05Z4.s
   Uses
      None
Comment: FTFA_FlashConfig_BACKKEY1 unused
FTFA_FlashConfig_BACKKEY1_KEY_MASK 000000FF

Symbol: FTFA_FlashConfig_BACKKEY1_KEY_MASK
   Definitions
      At line 989 in file MKL05Z4.s
   Uses
      None
Comment: FTFA_FlashConfig_BACKKEY1_KEY_MASK unused
FTFA_FlashConfig_BACKKEY1_KEY_SHIFT 00000000



ARM Macro Assembler    Page 52 Alphabetic symbol ordering
Absolute symbols


Symbol: FTFA_FlashConfig_BACKKEY1_KEY_SHIFT
   Definitions
      At line 990 in file MKL05Z4.s
   Uses
      None
Comment: FTFA_FlashConfig_BACKKEY1_KEY_SHIFT unused
FTFA_FlashConfig_BACKKEY1_OFFSET 00000002

Symbol: FTFA_FlashConfig_BACKKEY1_OFFSET
   Definitions
      At line 953 in file MKL05Z4.s
   Uses
      At line 967 in file MKL05Z4.s
Comment: FTFA_FlashConfig_BACKKEY1_OFFSET used once
FTFA_FlashConfig_BACKKEY2 00000401

Symbol: FTFA_FlashConfig_BACKKEY2
   Definitions
      At line 966 in file MKL05Z4.s
   Uses
      None
Comment: FTFA_FlashConfig_BACKKEY2 unused
FTFA_FlashConfig_BACKKEY2_KEY_MASK 000000FF

Symbol: FTFA_FlashConfig_BACKKEY2_KEY_MASK
   Definitions
      At line 985 in file MKL05Z4.s
   Uses
      None
Comment: FTFA_FlashConfig_BACKKEY2_KEY_MASK unused
FTFA_FlashConfig_BACKKEY2_KEY_SHIFT 00000000

Symbol: FTFA_FlashConfig_BACKKEY2_KEY_SHIFT
   Definitions
      At line 986 in file MKL05Z4.s
   Uses
      None
Comment: FTFA_FlashConfig_BACKKEY2_KEY_SHIFT unused
FTFA_FlashConfig_BACKKEY2_OFFSET 00000001

Symbol: FTFA_FlashConfig_BACKKEY2_OFFSET
   Definitions
      At line 952 in file MKL05Z4.s
   Uses
      At line 966 in file MKL05Z4.s
Comment: FTFA_FlashConfig_BACKKEY2_OFFSET used once
FTFA_FlashConfig_BACKKEY3 00000400

Symbol: FTFA_FlashConfig_BACKKEY3
   Definitions
      At line 965 in file MKL05Z4.s
   Uses
      None
Comment: FTFA_FlashConfig_BACKKEY3 unused
FTFA_FlashConfig_BACKKEY3_KEY_MASK 000000FF

Symbol: FTFA_FlashConfig_BACKKEY3_KEY_MASK
   Definitions



ARM Macro Assembler    Page 53 Alphabetic symbol ordering
Absolute symbols

      At line 981 in file MKL05Z4.s
   Uses
      None
Comment: FTFA_FlashConfig_BACKKEY3_KEY_MASK unused
FTFA_FlashConfig_BACKKEY3_KEY_SHIFT 00000000

Symbol: FTFA_FlashConfig_BACKKEY3_KEY_SHIFT
   Definitions
      At line 982 in file MKL05Z4.s
   Uses
      None
Comment: FTFA_FlashConfig_BACKKEY3_KEY_SHIFT unused
FTFA_FlashConfig_BACKKEY3_OFFSET 00000000

Symbol: FTFA_FlashConfig_BACKKEY3_OFFSET
   Definitions
      At line 951 in file MKL05Z4.s
   Uses
      At line 965 in file MKL05Z4.s
Comment: FTFA_FlashConfig_BACKKEY3_OFFSET used once
FTFA_FlashConfig_BACKKEY4 00000407

Symbol: FTFA_FlashConfig_BACKKEY4
   Definitions
      At line 972 in file MKL05Z4.s
   Uses
      None
Comment: FTFA_FlashConfig_BACKKEY4 unused
FTFA_FlashConfig_BACKKEY4_KEY_MASK 000000FF

Symbol: FTFA_FlashConfig_BACKKEY4_KEY_MASK
   Definitions
      At line 1009 in file MKL05Z4.s
   Uses
      None
Comment: FTFA_FlashConfig_BACKKEY4_KEY_MASK unused
FTFA_FlashConfig_BACKKEY4_KEY_SHIFT 00000000

Symbol: FTFA_FlashConfig_BACKKEY4_KEY_SHIFT
   Definitions
      At line 1010 in file MKL05Z4.s
   Uses
      None
Comment: FTFA_FlashConfig_BACKKEY4_KEY_SHIFT unused
FTFA_FlashConfig_BACKKEY4_OFFSET 00000007

Symbol: FTFA_FlashConfig_BACKKEY4_OFFSET
   Definitions
      At line 958 in file MKL05Z4.s
   Uses
      At line 972 in file MKL05Z4.s
Comment: FTFA_FlashConfig_BACKKEY4_OFFSET used once
FTFA_FlashConfig_BACKKEY5 00000406

Symbol: FTFA_FlashConfig_BACKKEY5
   Definitions
      At line 971 in file MKL05Z4.s
   Uses
      None



ARM Macro Assembler    Page 54 Alphabetic symbol ordering
Absolute symbols

Comment: FTFA_FlashConfig_BACKKEY5 unused
FTFA_FlashConfig_BACKKEY5_KEY_MASK 000000FF

Symbol: FTFA_FlashConfig_BACKKEY5_KEY_MASK
   Definitions
      At line 1005 in file MKL05Z4.s
   Uses
      None
Comment: FTFA_FlashConfig_BACKKEY5_KEY_MASK unused
FTFA_FlashConfig_BACKKEY5_KEY_SHIFT 00000000

Symbol: FTFA_FlashConfig_BACKKEY5_KEY_SHIFT
   Definitions
      At line 1006 in file MKL05Z4.s
   Uses
      None
Comment: FTFA_FlashConfig_BACKKEY5_KEY_SHIFT unused
FTFA_FlashConfig_BACKKEY5_OFFSET 00000006

Symbol: FTFA_FlashConfig_BACKKEY5_OFFSET
   Definitions
      At line 957 in file MKL05Z4.s
   Uses
      At line 971 in file MKL05Z4.s
Comment: FTFA_FlashConfig_BACKKEY5_OFFSET used once
FTFA_FlashConfig_BACKKEY6 00000405

Symbol: FTFA_FlashConfig_BACKKEY6
   Definitions
      At line 970 in file MKL05Z4.s
   Uses
      None
Comment: FTFA_FlashConfig_BACKKEY6 unused
FTFA_FlashConfig_BACKKEY6_KEY_MASK 000000FF

Symbol: FTFA_FlashConfig_BACKKEY6_KEY_MASK
   Definitions
      At line 1001 in file MKL05Z4.s
   Uses
      None
Comment: FTFA_FlashConfig_BACKKEY6_KEY_MASK unused
FTFA_FlashConfig_BACKKEY6_KEY_SHIFT 00000000

Symbol: FTFA_FlashConfig_BACKKEY6_KEY_SHIFT
   Definitions
      At line 1002 in file MKL05Z4.s
   Uses
      None
Comment: FTFA_FlashConfig_BACKKEY6_KEY_SHIFT unused
FTFA_FlashConfig_BACKKEY6_OFFSET 00000005

Symbol: FTFA_FlashConfig_BACKKEY6_OFFSET
   Definitions
      At line 956 in file MKL05Z4.s
   Uses
      At line 970 in file MKL05Z4.s
Comment: FTFA_FlashConfig_BACKKEY6_OFFSET used once
FTFA_FlashConfig_BACKKEY7 00000404




ARM Macro Assembler    Page 55 Alphabetic symbol ordering
Absolute symbols

Symbol: FTFA_FlashConfig_BACKKEY7
   Definitions
      At line 969 in file MKL05Z4.s
   Uses
      None
Comment: FTFA_FlashConfig_BACKKEY7 unused
FTFA_FlashConfig_BACKKEY7_KEY_MASK 000000FF

Symbol: FTFA_FlashConfig_BACKKEY7_KEY_MASK
   Definitions
      At line 997 in file MKL05Z4.s
   Uses
      None
Comment: FTFA_FlashConfig_BACKKEY7_KEY_MASK unused
FTFA_FlashConfig_BACKKEY7_KEY_SHIFT 00000000

Symbol: FTFA_FlashConfig_BACKKEY7_KEY_SHIFT
   Definitions
      At line 998 in file MKL05Z4.s
   Uses
      None
Comment: FTFA_FlashConfig_BACKKEY7_KEY_SHIFT unused
FTFA_FlashConfig_BACKKEY7_OFFSET 00000004

Symbol: FTFA_FlashConfig_BACKKEY7_OFFSET
   Definitions
      At line 955 in file MKL05Z4.s
   Uses
      At line 969 in file MKL05Z4.s
Comment: FTFA_FlashConfig_BACKKEY7_OFFSET used once
FTFA_FlashConfig_BASE 00000400

Symbol: FTFA_FlashConfig_BASE
   Definitions
      At line 950 in file MKL05Z4.s
   Uses
      At line 965 in file MKL05Z4.s
      At line 966 in file MKL05Z4.s
      At line 967 in file MKL05Z4.s
      At line 968 in file MKL05Z4.s
      At line 969 in file MKL05Z4.s
      At line 970 in file MKL05Z4.s
      At line 971 in file MKL05Z4.s
      At line 972 in file MKL05Z4.s
      At line 973 in file MKL05Z4.s
      At line 974 in file MKL05Z4.s
      At line 975 in file MKL05Z4.s
      At line 976 in file MKL05Z4.s
      At line 977 in file MKL05Z4.s
      At line 978 in file MKL05Z4.s

FTFA_FlashConfig_FOPT 0000040D

Symbol: FTFA_FlashConfig_FOPT
   Definitions
      At line 978 in file MKL05Z4.s
   Uses
      None
Comment: FTFA_FlashConfig_FOPT unused



ARM Macro Assembler    Page 56 Alphabetic symbol ordering
Absolute symbols

FTFA_FlashConfig_FOPT_FAST_INIT_MASK 00000020

Symbol: FTFA_FlashConfig_FOPT_FAST_INIT_MASK
   Definitions
      At line 1059 in file MKL05Z4.s
   Uses
      None
Comment: FTFA_FlashConfig_FOPT_FAST_INIT_MASK unused
FTFA_FlashConfig_FOPT_FAST_INIT_SHIFT 00000005

Symbol: FTFA_FlashConfig_FOPT_FAST_INIT_SHIFT
   Definitions
      At line 1060 in file MKL05Z4.s
   Uses
      None
Comment: FTFA_FlashConfig_FOPT_FAST_INIT_SHIFT unused
FTFA_FlashConfig_FOPT_LPBOOT0_MASK 00000001

Symbol: FTFA_FlashConfig_FOPT_LPBOOT0_MASK
   Definitions
      At line 1051 in file MKL05Z4.s
   Uses
      None
Comment: FTFA_FlashConfig_FOPT_LPBOOT0_MASK unused
FTFA_FlashConfig_FOPT_LPBOOT0_SHIFT 00000000

Symbol: FTFA_FlashConfig_FOPT_LPBOOT0_SHIFT
   Definitions
      At line 1052 in file MKL05Z4.s
   Uses
      None
Comment: FTFA_FlashConfig_FOPT_LPBOOT0_SHIFT unused
FTFA_FlashConfig_FOPT_LPBOOT1_MASK 00000010

Symbol: FTFA_FlashConfig_FOPT_LPBOOT1_MASK
   Definitions
      At line 1057 in file MKL05Z4.s
   Uses
      None
Comment: FTFA_FlashConfig_FOPT_LPBOOT1_MASK unused
FTFA_FlashConfig_FOPT_LPBOOT1_SHIFT 00000004

Symbol: FTFA_FlashConfig_FOPT_LPBOOT1_SHIFT
   Definitions
      At line 1058 in file MKL05Z4.s
   Uses
      None
Comment: FTFA_FlashConfig_FOPT_LPBOOT1_SHIFT unused
FTFA_FlashConfig_FOPT_NMI_DIS_MASK 00000004

Symbol: FTFA_FlashConfig_FOPT_NMI_DIS_MASK
   Definitions
      At line 1053 in file MKL05Z4.s
   Uses
      None
Comment: FTFA_FlashConfig_FOPT_NMI_DIS_MASK unused
FTFA_FlashConfig_FOPT_NMI_DIS_SHIFT 00000002

Symbol: FTFA_FlashConfig_FOPT_NMI_DIS_SHIFT



ARM Macro Assembler    Page 57 Alphabetic symbol ordering
Absolute symbols

   Definitions
      At line 1054 in file MKL05Z4.s
   Uses
      None
Comment: FTFA_FlashConfig_FOPT_NMI_DIS_SHIFT unused
FTFA_FlashConfig_FOPT_OFFSET 0000000D

Symbol: FTFA_FlashConfig_FOPT_OFFSET
   Definitions
      At line 964 in file MKL05Z4.s
   Uses
      At line 978 in file MKL05Z4.s
Comment: FTFA_FlashConfig_FOPT_OFFSET used once
FTFA_FlashConfig_FOPT_RESET_PIN_CFG_MASK 00000008

Symbol: FTFA_FlashConfig_FOPT_RESET_PIN_CFG_MASK
   Definitions
      At line 1055 in file MKL05Z4.s
   Uses
      None
Comment: FTFA_FlashConfig_FOPT_RESET_PIN_CFG_MASK unused
FTFA_FlashConfig_FOPT_RESET_PIN_CFG_SHIFT 00000003

Symbol: FTFA_FlashConfig_FOPT_RESET_PIN_CFG_SHIFT
   Definitions
      At line 1056 in file MKL05Z4.s
   Uses
      None
Comment: FTFA_FlashConfig_FOPT_RESET_PIN_CFG_SHIFT unused
FTFA_FlashConfig_FPROT0 0000040B

Symbol: FTFA_FlashConfig_FPROT0
   Definitions
      At line 976 in file MKL05Z4.s
   Uses
      None
Comment: FTFA_FlashConfig_FPROT0 unused
FTFA_FlashConfig_FPROT0_OFFSET 0000000B

Symbol: FTFA_FlashConfig_FPROT0_OFFSET
   Definitions
      At line 962 in file MKL05Z4.s
   Uses
      At line 976 in file MKL05Z4.s
Comment: FTFA_FlashConfig_FPROT0_OFFSET used once
FTFA_FlashConfig_FPROT0_PROT_MASK 000000FF

Symbol: FTFA_FlashConfig_FPROT0_PROT_MASK
   Definitions
      At line 1025 in file MKL05Z4.s
   Uses
      None
Comment: FTFA_FlashConfig_FPROT0_PROT_MASK unused
FTFA_FlashConfig_FPROT0_PROT_SHIFT 00000000

Symbol: FTFA_FlashConfig_FPROT0_PROT_SHIFT
   Definitions
      At line 1026 in file MKL05Z4.s
   Uses



ARM Macro Assembler    Page 58 Alphabetic symbol ordering
Absolute symbols

      None
Comment: FTFA_FlashConfig_FPROT0_PROT_SHIFT unused
FTFA_FlashConfig_FPROT1 0000040A

Symbol: FTFA_FlashConfig_FPROT1
   Definitions
      At line 975 in file MKL05Z4.s
   Uses
      None
Comment: FTFA_FlashConfig_FPROT1 unused
FTFA_FlashConfig_FPROT1_OFFSET 0000000A

Symbol: FTFA_FlashConfig_FPROT1_OFFSET
   Definitions
      At line 961 in file MKL05Z4.s
   Uses
      At line 975 in file MKL05Z4.s
Comment: FTFA_FlashConfig_FPROT1_OFFSET used once
FTFA_FlashConfig_FPROT1_PROT_MASK 000000FF

Symbol: FTFA_FlashConfig_FPROT1_PROT_MASK
   Definitions
      At line 1021 in file MKL05Z4.s
   Uses
      None
Comment: FTFA_FlashConfig_FPROT1_PROT_MASK unused
FTFA_FlashConfig_FPROT1_PROT_SHIFT 00000000

Symbol: FTFA_FlashConfig_FPROT1_PROT_SHIFT
   Definitions
      At line 1022 in file MKL05Z4.s
   Uses
      None
Comment: FTFA_FlashConfig_FPROT1_PROT_SHIFT unused
FTFA_FlashConfig_FPROT2 00000409

Symbol: FTFA_FlashConfig_FPROT2
   Definitions
      At line 974 in file MKL05Z4.s
   Uses
      None
Comment: FTFA_FlashConfig_FPROT2 unused
FTFA_FlashConfig_FPROT2_OFFSET 00000009

Symbol: FTFA_FlashConfig_FPROT2_OFFSET
   Definitions
      At line 960 in file MKL05Z4.s
   Uses
      At line 974 in file MKL05Z4.s
Comment: FTFA_FlashConfig_FPROT2_OFFSET used once
FTFA_FlashConfig_FPROT2_PROT_MASK 000000FF

Symbol: FTFA_FlashConfig_FPROT2_PROT_MASK
   Definitions
      At line 1017 in file MKL05Z4.s
   Uses
      None
Comment: FTFA_FlashConfig_FPROT2_PROT_MASK unused
FTFA_FlashConfig_FPROT2_PROT_SHIFT 00000000



ARM Macro Assembler    Page 59 Alphabetic symbol ordering
Absolute symbols


Symbol: FTFA_FlashConfig_FPROT2_PROT_SHIFT
   Definitions
      At line 1018 in file MKL05Z4.s
   Uses
      None
Comment: FTFA_FlashConfig_FPROT2_PROT_SHIFT unused
FTFA_FlashConfig_FPROT3 00000408

Symbol: FTFA_FlashConfig_FPROT3
   Definitions
      At line 973 in file MKL05Z4.s
   Uses
      None
Comment: FTFA_FlashConfig_FPROT3 unused
FTFA_FlashConfig_FPROT3_OFFSET 00000008

Symbol: FTFA_FlashConfig_FPROT3_OFFSET
   Definitions
      At line 959 in file MKL05Z4.s
   Uses
      At line 973 in file MKL05Z4.s
Comment: FTFA_FlashConfig_FPROT3_OFFSET used once
FTFA_FlashConfig_FPROT3_PROT_MASK 000000FF

Symbol: FTFA_FlashConfig_FPROT3_PROT_MASK
   Definitions
      At line 1013 in file MKL05Z4.s
   Uses
      None
Comment: FTFA_FlashConfig_FPROT3_PROT_MASK unused
FTFA_FlashConfig_FPROT3_PROT_SHIFT 00000000

Symbol: FTFA_FlashConfig_FPROT3_PROT_SHIFT
   Definitions
      At line 1014 in file MKL05Z4.s
   Uses
      None
Comment: FTFA_FlashConfig_FPROT3_PROT_SHIFT unused
FTFA_FlashConfig_FSEC 0000040C

Symbol: FTFA_FlashConfig_FSEC
   Definitions
      At line 977 in file MKL05Z4.s
   Uses
      None
Comment: FTFA_FlashConfig_FSEC unused
FTFA_FlashConfig_FSEC_FSLACC_MASK 0000000C

Symbol: FTFA_FlashConfig_FSEC_FSLACC_MASK
   Definitions
      At line 1043 in file MKL05Z4.s
   Uses
      None
Comment: FTFA_FlashConfig_FSEC_FSLACC_MASK unused
FTFA_FlashConfig_FSEC_FSLACC_SHIFT 00000002

Symbol: FTFA_FlashConfig_FSEC_FSLACC_SHIFT
   Definitions



ARM Macro Assembler    Page 60 Alphabetic symbol ordering
Absolute symbols

      At line 1044 in file MKL05Z4.s
   Uses
      None
Comment: FTFA_FlashConfig_FSEC_FSLACC_SHIFT unused
FTFA_FlashConfig_FSEC_KEYEN_MASK 000000C0

Symbol: FTFA_FlashConfig_FSEC_KEYEN_MASK
   Definitions
      At line 1047 in file MKL05Z4.s
   Uses
      None
Comment: FTFA_FlashConfig_FSEC_KEYEN_MASK unused
FTFA_FlashConfig_FSEC_KEYEN_SHIFT 00000006

Symbol: FTFA_FlashConfig_FSEC_KEYEN_SHIFT
   Definitions
      At line 1048 in file MKL05Z4.s
   Uses
      None
Comment: FTFA_FlashConfig_FSEC_KEYEN_SHIFT unused
FTFA_FlashConfig_FSEC_MEEN_MASK 00000030

Symbol: FTFA_FlashConfig_FSEC_MEEN_MASK
   Definitions
      At line 1045 in file MKL05Z4.s
   Uses
      None
Comment: FTFA_FlashConfig_FSEC_MEEN_MASK unused
FTFA_FlashConfig_FSEC_MEEN_SHIFT 00000004

Symbol: FTFA_FlashConfig_FSEC_MEEN_SHIFT
   Definitions
      At line 1046 in file MKL05Z4.s
   Uses
      None
Comment: FTFA_FlashConfig_FSEC_MEEN_SHIFT unused
FTFA_FlashConfig_FSEC_OFFSET 0000000C

Symbol: FTFA_FlashConfig_FSEC_OFFSET
   Definitions
      At line 963 in file MKL05Z4.s
   Uses
      At line 977 in file MKL05Z4.s
Comment: FTFA_FlashConfig_FSEC_OFFSET used once
FTFA_FlashConfig_FSEC_SEC_MASK 00000003

Symbol: FTFA_FlashConfig_FSEC_SEC_MASK
   Definitions
      At line 1041 in file MKL05Z4.s
   Uses
      None
Comment: FTFA_FlashConfig_FSEC_SEC_MASK unused
FTFA_FlashConfig_FSEC_SEC_SHIFT 00000000

Symbol: FTFA_FlashConfig_FSEC_SEC_SHIFT
   Definitions
      At line 1042 in file MKL05Z4.s
   Uses
      None



ARM Macro Assembler    Page 61 Alphabetic symbol ordering
Absolute symbols

Comment: FTFA_FlashConfig_FSEC_SEC_SHIFT unused
FTFA_IPR E000E404

Symbol: FTFA_IPR
   Definitions
      At line 1443 in file MKL05Z4.s
   Uses
      None
Comment: FTFA_IPR unused
FTFA_IRQ_MASK 00000020

Symbol: FTFA_IRQ_MASK
   Definitions
      At line 1513 in file MKL05Z4.s
   Uses
      None
Comment: FTFA_IRQ_MASK unused
FTFA_IRQn 00000005

Symbol: FTFA_IRQn
   Definitions
      At line 162 in file MKL05Z4.s
   Uses
      At line 1513 in file MKL05Z4.s
Comment: FTFA_IRQn used once
FTFA_PRI_POS 0000000E

Symbol: FTFA_PRI_POS
   Definitions
      At line 1479 in file MKL05Z4.s
   Uses
      None
Comment: FTFA_PRI_POS unused
FTFA_Vector 00000015

Symbol: FTFA_Vector
   Definitions
      At line 1564 in file MKL05Z4.s
   Uses
      None
Comment: FTFA_Vector unused
GPIOA_BASE 400FF000

Symbol: GPIOA_BASE
   Definitions
      At line 1088 in file MKL05Z4.s
   Uses
      At line 1089 in file MKL05Z4.s
      At line 1090 in file MKL05Z4.s
      At line 1091 in file MKL05Z4.s
      At line 1092 in file MKL05Z4.s
      At line 1093 in file MKL05Z4.s
      At line 1094 in file MKL05Z4.s

GPIOA_OFFSET 00000000

Symbol: GPIOA_OFFSET
   Definitions
      At line 1085 in file MKL05Z4.s



ARM Macro Assembler    Page 62 Alphabetic symbol ordering
Absolute symbols

   Uses
      None
Comment: GPIOA_OFFSET unused
GPIOA_PCOR 400FF008

Symbol: GPIOA_PCOR
   Definitions
      At line 1091 in file MKL05Z4.s
   Uses
      None
Comment: GPIOA_PCOR unused
GPIOA_PDDR 400FF014

Symbol: GPIOA_PDDR
   Definitions
      At line 1094 in file MKL05Z4.s
   Uses
      None
Comment: GPIOA_PDDR unused
GPIOA_PDIR 400FF010

Symbol: GPIOA_PDIR
   Definitions
      At line 1093 in file MKL05Z4.s
   Uses
      None
Comment: GPIOA_PDIR unused
GPIOA_PDOR 400FF000

Symbol: GPIOA_PDOR
   Definitions
      At line 1089 in file MKL05Z4.s
   Uses
      None
Comment: GPIOA_PDOR unused
GPIOA_PSOR 400FF004

Symbol: GPIOA_PSOR
   Definitions
      At line 1090 in file MKL05Z4.s
   Uses
      None
Comment: GPIOA_PSOR unused
GPIOA_PTOR 400FF00C

Symbol: GPIOA_PTOR
   Definitions
      At line 1092 in file MKL05Z4.s
   Uses
      None
Comment: GPIOA_PTOR unused
GPIOB_BASE 400FF040

Symbol: GPIOB_BASE
   Definitions
      At line 1096 in file MKL05Z4.s
   Uses
      At line 1097 in file MKL05Z4.s
      At line 1098 in file MKL05Z4.s



ARM Macro Assembler    Page 63 Alphabetic symbol ordering
Absolute symbols

      At line 1099 in file MKL05Z4.s
      At line 1100 in file MKL05Z4.s
      At line 1101 in file MKL05Z4.s
      At line 1102 in file MKL05Z4.s

GPIOB_OFFSET 00000040

Symbol: GPIOB_OFFSET
   Definitions
      At line 1086 in file MKL05Z4.s
   Uses
      None
Comment: GPIOB_OFFSET unused
GPIOB_PCOR 400FF048

Symbol: GPIOB_PCOR
   Definitions
      At line 1099 in file MKL05Z4.s
   Uses
      None
Comment: GPIOB_PCOR unused
GPIOB_PDDR 400FF054

Symbol: GPIOB_PDDR
   Definitions
      At line 1102 in file MKL05Z4.s
   Uses
      None
Comment: GPIOB_PDDR unused
GPIOB_PDIR 400FF050

Symbol: GPIOB_PDIR
   Definitions
      At line 1101 in file MKL05Z4.s
   Uses
      None
Comment: GPIOB_PDIR unused
GPIOB_PDOR 400FF040

Symbol: GPIOB_PDOR
   Definitions
      At line 1097 in file MKL05Z4.s
   Uses
      None
Comment: GPIOB_PDOR unused
GPIOB_PSOR 400FF044

Symbol: GPIOB_PSOR
   Definitions
      At line 1098 in file MKL05Z4.s
   Uses
      None
Comment: GPIOB_PSOR unused
GPIOB_PTOR 400FF04C

Symbol: GPIOB_PTOR
   Definitions
      At line 1100 in file MKL05Z4.s
   Uses



ARM Macro Assembler    Page 64 Alphabetic symbol ordering
Absolute symbols

      None
Comment: GPIOB_PTOR unused
GPIO_BASE 400FF000

Symbol: GPIO_BASE
   Definitions
      At line 1076 in file MKL05Z4.s
   Uses
      None
Comment: GPIO_BASE unused
GPIO_PCOR_OFFSET 00000008

Symbol: GPIO_PCOR_OFFSET
   Definitions
      At line 1079 in file MKL05Z4.s
   Uses
      At line 891 in file MKL05Z4.s
      At line 899 in file MKL05Z4.s
      At line 1091 in file MKL05Z4.s
      At line 1099 in file MKL05Z4.s
      At line 673 in file Ex_12.s
      At line 685 in file Ex_12.s
      At line 697 in file Ex_12.s

GPIO_PDDR_OFFSET 00000014

Symbol: GPIO_PDDR_OFFSET
   Definitions
      At line 1082 in file MKL05Z4.s
   Uses
      At line 894 in file MKL05Z4.s
      At line 902 in file MKL05Z4.s
      At line 1094 in file MKL05Z4.s
      At line 1102 in file MKL05Z4.s
      At line 643 in file Ex_12.s

GPIO_PDIR_OFFSET 00000010

Symbol: GPIO_PDIR_OFFSET
   Definitions
      At line 1081 in file MKL05Z4.s
   Uses
      At line 893 in file MKL05Z4.s
      At line 901 in file MKL05Z4.s
      At line 1093 in file MKL05Z4.s
      At line 1101 in file MKL05Z4.s

GPIO_PDOR_OFFSET 00000000

Symbol: GPIO_PDOR_OFFSET
   Definitions
      At line 1077 in file MKL05Z4.s
   Uses
      At line 889 in file MKL05Z4.s
      At line 897 in file MKL05Z4.s
      At line 1089 in file MKL05Z4.s
      At line 1097 in file MKL05Z4.s
      At line 786 in file Ex_12.s
      At line 813 in file Ex_12.s



ARM Macro Assembler    Page 65 Alphabetic symbol ordering
Absolute symbols

      At line 872 in file Ex_12.s
      At line 901 in file Ex_12.s
      At line 953 in file Ex_12.s
      At line 983 in file Ex_12.s

GPIO_PSOR_OFFSET 00000004

Symbol: GPIO_PSOR_OFFSET
   Definitions
      At line 1078 in file MKL05Z4.s
   Uses
      At line 890 in file MKL05Z4.s
      At line 898 in file MKL05Z4.s
      At line 1090 in file MKL05Z4.s
      At line 1098 in file MKL05Z4.s
      At line 655 in file Ex_12.s
      At line 658 in file Ex_12.s
      At line 661 in file Ex_12.s

GPIO_PTOR_OFFSET 0000000C

Symbol: GPIO_PTOR_OFFSET
   Definitions
      At line 1080 in file MKL05Z4.s
   Uses
      At line 892 in file MKL05Z4.s
      At line 900 in file MKL05Z4.s
      At line 1092 in file MKL05Z4.s
      At line 1100 in file MKL05Z4.s
      At line 709 in file Ex_12.s
      At line 721 in file Ex_12.s

HALFWORD_MASK 0000FFFF

Symbol: HALFWORD_MASK
   Definitions
      At line 42 in file MKL05Z4.s
   Uses
      None
Comment: HALFWORD_MASK unused
HALFWORD_SIZE 00000002

Symbol: HALFWORD_SIZE
   Definitions
      At line 40 in file MKL05Z4.s
   Uses
      None
Comment: HALFWORD_SIZE unused
H_ascii 00000048

Symbol: H_ascii
   Definitions
      At line 40 in file Ex_12.s
   Uses
      At line 415 in file Ex_12.s
      At line 512 in file Ex_12.s

HardFault_IRQn FFFFFFF3




ARM Macro Assembler    Page 66 Alphabetic symbol ordering
Absolute symbols

Symbol: HardFault_IRQn
   Definitions
      At line 150 in file MKL05Z4.s
   Uses
      None
Comment: HardFault_IRQn unused
Hard_Fault_Vector 00000003

Symbol: Hard_Fault_Vector
   Definitions
      At line 1545 in file MKL05Z4.s
   Uses
      None
Comment: Hard_Fault_Vector unused
I2C0_IPR E000E408

Symbol: I2C0_IPR
   Definitions
      At line 1446 in file MKL05Z4.s
   Uses
      None
Comment: I2C0_IPR unused
I2C0_IRQ_MASK 00000100

Symbol: I2C0_IRQ_MASK
   Definitions
      At line 1516 in file MKL05Z4.s
   Uses
      None
Comment: I2C0_IRQ_MASK unused
I2C0_IRQn 00000008

Symbol: I2C0_IRQn
   Definitions
      At line 165 in file MKL05Z4.s
   Uses
      At line 1516 in file MKL05Z4.s
Comment: I2C0_IRQn used once
I2C0_PRI_POS 00000006

Symbol: I2C0_PRI_POS
   Definitions
      At line 1482 in file MKL05Z4.s
   Uses
      None
Comment: I2C0_PRI_POS unused
I2C0_Vector 00000018

Symbol: I2C0_Vector
   Definitions
      At line 1567 in file MKL05Z4.s
   Uses
      None
Comment: I2C0_Vector unused
IN_PTR 00000000

Symbol: IN_PTR
   Definitions
      At line 53 in file Ex_12.s



ARM Macro Assembler    Page 67 Alphabetic symbol ordering
Absolute symbols

   Uses
      None
Comment: IN_PTR unused
IPSR_EXCEPTION_MASK 0000003F

Symbol: IPSR_EXCEPTION_MASK
   Definitions
      At line 122 in file MKL05Z4.s
   Uses
      At line 135 in file MKL05Z4.s
Comment: IPSR_EXCEPTION_MASK used once
IPSR_EXCEPTION_SHIFT 00000000

Symbol: IPSR_EXCEPTION_SHIFT
   Definitions
      At line 123 in file MKL05Z4.s
   Uses
      At line 136 in file MKL05Z4.s
Comment: IPSR_EXCEPTION_SHIFT used once
IPSR_MASK 0000003F

Symbol: IPSR_MASK
   Definitions
      At line 120 in file MKL05Z4.s
   Uses
      None
Comment: IPSR_MASK unused
IPSR_SHIFT 00000000

Symbol: IPSR_SHIFT
   Definitions
      At line 121 in file MKL05Z4.s
   Uses
      None
Comment: IPSR_SHIFT unused
Init_SP_Vector 00000000

Symbol: Init_SP_Vector
   Definitions
      At line 1542 in file MKL05Z4.s
   Uses
      None
Comment: Init_SP_Vector unused
LF 0000000A

Symbol: LF
   Definitions
      At line 25 in file Ex_12.s
   Uses
      At line 1162 in file Ex_12.s
Comment: LF used once
LLW_IPR E000E404

Symbol: LLW_IPR
   Definitions
      At line 1445 in file MKL05Z4.s
   Uses
      None
Comment: LLW_IPR unused



ARM Macro Assembler    Page 68 Alphabetic symbol ordering
Absolute symbols

LLW_IRQ_MASK 00000080

Symbol: LLW_IRQ_MASK
   Definitions
      At line 1515 in file MKL05Z4.s
   Uses
      None
Comment: LLW_IRQ_MASK unused
LLW_IRQn 00000007

Symbol: LLW_IRQn
   Definitions
      At line 164 in file MKL05Z4.s
   Uses
      At line 1515 in file MKL05Z4.s
Comment: LLW_IRQn used once
LLW_PRI_POS 0000001E

Symbol: LLW_PRI_POS
   Definitions
      At line 1481 in file MKL05Z4.s
   Uses
      None
Comment: LLW_PRI_POS unused
LLW_Vector 00000017

Symbol: LLW_Vector
   Definitions
      At line 1566 in file MKL05Z4.s
   Uses
      None
Comment: LLW_Vector unused
LPTimer_IPR E000E41C

Symbol: LPTimer_IPR
   Definitions
      At line 1466 in file MKL05Z4.s
   Uses
      None
Comment: LPTimer_IPR unused
LPTimer_IRQ_MASK 10000000

Symbol: LPTimer_IRQ_MASK
   Definitions
      At line 1536 in file MKL05Z4.s
   Uses
      None
Comment: LPTimer_IRQ_MASK unused
LPTimer_IRQn 0000001C

Symbol: LPTimer_IRQn
   Definitions
      At line 185 in file MKL05Z4.s
   Uses
      At line 1536 in file MKL05Z4.s
Comment: LPTimer_IRQn used once
LPTimer_PRI_POS 00000006

Symbol: LPTimer_PRI_POS



ARM Macro Assembler    Page 69 Alphabetic symbol ordering
Absolute symbols

   Definitions
      At line 1502 in file MKL05Z4.s
   Uses
      None
Comment: LPTimer_PRI_POS unused
LPTimer_Vector 0000002C

Symbol: LPTimer_Vector
   Definitions
      At line 1587 in file MKL05Z4.s
   Uses
      None
Comment: LPTimer_Vector unused
LVD_LVW_IPR E000E404

Symbol: LVD_LVW_IPR
   Definitions
      At line 1444 in file MKL05Z4.s
   Uses
      None
Comment: LVD_LVW_IPR unused
LVD_LVW_IRQ_MASK 00000040

Symbol: LVD_LVW_IRQ_MASK
   Definitions
      At line 1514 in file MKL05Z4.s
   Uses
      None
Comment: LVD_LVW_IRQ_MASK unused
LVD_LVW_IRQn 00000006

Symbol: LVD_LVW_IRQn
   Definitions
      At line 163 in file MKL05Z4.s
   Uses
      At line 1514 in file MKL05Z4.s
Comment: LVD_LVW_IRQn used once
LVD_LVW_PRI_POS 00000016

Symbol: LVD_LVW_PRI_POS
   Definitions
      At line 1480 in file MKL05Z4.s
   Uses
      None
Comment: LVD_LVW_PRI_POS unused
LVD_LVW_Vector 00000016

Symbol: LVD_LVW_Vector
   Definitions
      At line 1565 in file MKL05Z4.s
   Uses
      None
Comment: LVD_LVW_Vector unused
MAX_EAS 00000006

Symbol: MAX_EAS
   Definitions
      At line 30 in file Ex_12.s
   Uses



ARM Macro Assembler    Page 70 Alphabetic symbol ordering
Absolute symbols

      At line 776 in file Ex_12.s
Comment: MAX_EAS used once
MAX_HAR 0000000A

Symbol: MAX_HAR
   Definitions
      At line 32 in file Ex_12.s
   Uses
      At line 945 in file Ex_12.s
Comment: MAX_HAR used once
MAX_MED 00000007

Symbol: MAX_MED
   Definitions
      At line 31 in file Ex_12.s
   Uses
      At line 864 in file Ex_12.s
Comment: MAX_MED used once
MAX_STRING 000000C8

Symbol: MAX_STRING
   Definitions
      At line 33 in file Ex_12.s
   Uses
      At line 349 in file Ex_12.s
      At line 798 in file Ex_12.s
      At line 884 in file Ex_12.s
      At line 965 in file Ex_12.s
      At line 1374 in file Ex_12.s

MCG_ATCVH 4006400A

Symbol: MCG_ATCVH
   Definitions
      At line 1125 in file MKL05Z4.s
   Uses
      None
Comment: MCG_ATCVH unused
MCG_ATCVH_ATCVH_MASK 000000FF

Symbol: MCG_ATCVH_ATCVH_MASK
   Definitions
      At line 1286 in file MKL05Z4.s
   Uses
      None
Comment: MCG_ATCVH_ATCVH_MASK unused
MCG_ATCVH_ATCVH_SHIFT 00000000

Symbol: MCG_ATCVH_ATCVH_SHIFT
   Definitions
      At line 1287 in file MKL05Z4.s
   Uses
      None
Comment: MCG_ATCVH_ATCVH_SHIFT unused
MCG_ATCVH_OFFSET 0000000A

Symbol: MCG_ATCVH_OFFSET
   Definitions
      At line 1116 in file MKL05Z4.s



ARM Macro Assembler    Page 71 Alphabetic symbol ordering
Absolute symbols

   Uses
      At line 1125 in file MKL05Z4.s
Comment: MCG_ATCVH_OFFSET used once
MCG_ATCVL 4006400B

Symbol: MCG_ATCVL
   Definitions
      At line 1126 in file MKL05Z4.s
   Uses
      None
Comment: MCG_ATCVL unused
MCG_ATCVL_ATCVL_MASK 000000FF

Symbol: MCG_ATCVL_ATCVL_MASK
   Definitions
      At line 1291 in file MKL05Z4.s
   Uses
      None
Comment: MCG_ATCVL_ATCVL_MASK unused
MCG_ATCVL_ATCVL_SHIFT 00000000

Symbol: MCG_ATCVL_ATCVL_SHIFT
   Definitions
      At line 1292 in file MKL05Z4.s
   Uses
      None
Comment: MCG_ATCVL_ATCVL_SHIFT unused
MCG_ATCVL_OFFSET 0000000B

Symbol: MCG_ATCVL_OFFSET
   Definitions
      At line 1117 in file MKL05Z4.s
   Uses
      At line 1126 in file MKL05Z4.s
Comment: MCG_ATCVL_OFFSET used once
MCG_BASE 40064000

Symbol: MCG_BASE
   Definitions
      At line 1108 in file MKL05Z4.s
   Uses
      At line 1118 in file MKL05Z4.s
      At line 1119 in file MKL05Z4.s
      At line 1120 in file MKL05Z4.s
      At line 1121 in file MKL05Z4.s
      At line 1122 in file MKL05Z4.s
      At line 1123 in file MKL05Z4.s
      At line 1124 in file MKL05Z4.s
      At line 1125 in file MKL05Z4.s
      At line 1126 in file MKL05Z4.s

MCG_C1 40064000

Symbol: MCG_C1
   Definitions
      At line 1118 in file MKL05Z4.s
   Uses
      None
Comment: MCG_C1 unused



ARM Macro Assembler    Page 72 Alphabetic symbol ordering
Absolute symbols

MCG_C1_CLKS_MASK 000000C0

Symbol: MCG_C1_CLKS_MASK
   Definitions
      At line 1151 in file MKL05Z4.s
   Uses
      None
Comment: MCG_C1_CLKS_MASK unused
MCG_C1_CLKS_SHIFT 00000006

Symbol: MCG_C1_CLKS_SHIFT
   Definitions
      At line 1152 in file MKL05Z4.s
   Uses
      None
Comment: MCG_C1_CLKS_SHIFT unused
MCG_C1_FRDIV_MASK 00000038

Symbol: MCG_C1_FRDIV_MASK
   Definitions
      At line 1153 in file MKL05Z4.s
   Uses
      None
Comment: MCG_C1_FRDIV_MASK unused
MCG_C1_FRDIV_SHIFT 00000003

Symbol: MCG_C1_FRDIV_SHIFT
   Definitions
      At line 1154 in file MKL05Z4.s
   Uses
      None
Comment: MCG_C1_FRDIV_SHIFT unused
MCG_C1_IRCLKEN_MASK 00000002

Symbol: MCG_C1_IRCLKEN_MASK
   Definitions
      At line 1157 in file MKL05Z4.s
   Uses
      None
Comment: MCG_C1_IRCLKEN_MASK unused
MCG_C1_IRCLKEN_SHIFT 00000001

Symbol: MCG_C1_IRCLKEN_SHIFT
   Definitions
      At line 1158 in file MKL05Z4.s
   Uses
      None
Comment: MCG_C1_IRCLKEN_SHIFT unused
MCG_C1_IREFSTEN_MASK 00000001

Symbol: MCG_C1_IREFSTEN_MASK
   Definitions
      At line 1159 in file MKL05Z4.s
   Uses
      None
Comment: MCG_C1_IREFSTEN_MASK unused
MCG_C1_IREFSTEN_SHIFT 00000000

Symbol: MCG_C1_IREFSTEN_SHIFT



ARM Macro Assembler    Page 73 Alphabetic symbol ordering
Absolute symbols

   Definitions
      At line 1160 in file MKL05Z4.s
   Uses
      None
Comment: MCG_C1_IREFSTEN_SHIFT unused
MCG_C1_IREFS_MASK 00000004

Symbol: MCG_C1_IREFS_MASK
   Definitions
      At line 1155 in file MKL05Z4.s
   Uses
      None
Comment: MCG_C1_IREFS_MASK unused
MCG_C1_IREFS_SHIFT 00000002

Symbol: MCG_C1_IREFS_SHIFT
   Definitions
      At line 1156 in file MKL05Z4.s
   Uses
      None
Comment: MCG_C1_IREFS_SHIFT unused
MCG_C1_OFFSET 00000000

Symbol: MCG_C1_OFFSET
   Definitions
      At line 1109 in file MKL05Z4.s
   Uses
      At line 1118 in file MKL05Z4.s
Comment: MCG_C1_OFFSET used once
MCG_C2 40064001

Symbol: MCG_C2
   Definitions
      At line 1119 in file MKL05Z4.s
   Uses
      None
Comment: MCG_C2 unused
MCG_C2_EREFS0_MASK 00000004

Symbol: MCG_C2_EREFS0_MASK
   Definitions
      At line 1189 in file MKL05Z4.s
   Uses
      None
Comment: MCG_C2_EREFS0_MASK unused
MCG_C2_EREFS0_SHIFT 00000002

Symbol: MCG_C2_EREFS0_SHIFT
   Definitions
      At line 1190 in file MKL05Z4.s
   Uses
      None
Comment: MCG_C2_EREFS0_SHIFT unused
MCG_C2_HGO0_MASK 00000008

Symbol: MCG_C2_HGO0_MASK
   Definitions
      At line 1187 in file MKL05Z4.s
   Uses



ARM Macro Assembler    Page 74 Alphabetic symbol ordering
Absolute symbols

      None
Comment: MCG_C2_HGO0_MASK unused
MCG_C2_HGO0_SHIFT 00000003

Symbol: MCG_C2_HGO0_SHIFT
   Definitions
      At line 1188 in file MKL05Z4.s
   Uses
      None
Comment: MCG_C2_HGO0_SHIFT unused
MCG_C2_IRCS_MASK 00000001

Symbol: MCG_C2_IRCS_MASK
   Definitions
      At line 1193 in file MKL05Z4.s
   Uses
      None
Comment: MCG_C2_IRCS_MASK unused
MCG_C2_IRCS_SHIFT 00000000

Symbol: MCG_C2_IRCS_SHIFT
   Definitions
      At line 1194 in file MKL05Z4.s
   Uses
      None
Comment: MCG_C2_IRCS_SHIFT unused
MCG_C2_LOCRE0_MASK 00000080

Symbol: MCG_C2_LOCRE0_MASK
   Definitions
      At line 1183 in file MKL05Z4.s
   Uses
      None
Comment: MCG_C2_LOCRE0_MASK unused
MCG_C2_LOCRE0_SHIFT 00000007

Symbol: MCG_C2_LOCRE0_SHIFT
   Definitions
      At line 1184 in file MKL05Z4.s
   Uses
      None
Comment: MCG_C2_LOCRE0_SHIFT unused
MCG_C2_LP_MASK 00000002

Symbol: MCG_C2_LP_MASK
   Definitions
      At line 1191 in file MKL05Z4.s
   Uses
      None
Comment: MCG_C2_LP_MASK unused
MCG_C2_LP_SHIFT 00000001

Symbol: MCG_C2_LP_SHIFT
   Definitions
      At line 1192 in file MKL05Z4.s
   Uses
      None
Comment: MCG_C2_LP_SHIFT unused
MCG_C2_OFFSET 00000001



ARM Macro Assembler    Page 75 Alphabetic symbol ordering
Absolute symbols


Symbol: MCG_C2_OFFSET
   Definitions
      At line 1110 in file MKL05Z4.s
   Uses
      At line 1119 in file MKL05Z4.s
Comment: MCG_C2_OFFSET used once
MCG_C2_RANGE0_MASK 00000030

Symbol: MCG_C2_RANGE0_MASK
   Definitions
      At line 1185 in file MKL05Z4.s
   Uses
      None
Comment: MCG_C2_RANGE0_MASK unused
MCG_C2_RANGE0_SHIFT 00000004

Symbol: MCG_C2_RANGE0_SHIFT
   Definitions
      At line 1186 in file MKL05Z4.s
   Uses
      None
Comment: MCG_C2_RANGE0_SHIFT unused
MCG_C3 40064002

Symbol: MCG_C3
   Definitions
      At line 1120 in file MKL05Z4.s
   Uses
      None
Comment: MCG_C3 unused
MCG_C3_OFFSET 00000002

Symbol: MCG_C3_OFFSET
   Definitions
      At line 1111 in file MKL05Z4.s
   Uses
      At line 1120 in file MKL05Z4.s
Comment: MCG_C3_OFFSET used once
MCG_C3_SCTRIM_MASK 000000FF

Symbol: MCG_C3_SCTRIM_MASK
   Definitions
      At line 1199 in file MKL05Z4.s
   Uses
      None
Comment: MCG_C3_SCTRIM_MASK unused
MCG_C3_SCTRIM_SHIFT 00000000

Symbol: MCG_C3_SCTRIM_SHIFT
   Definitions
      At line 1200 in file MKL05Z4.s
   Uses
      None
Comment: MCG_C3_SCTRIM_SHIFT unused
MCG_C4 40064003

Symbol: MCG_C4
   Definitions



ARM Macro Assembler    Page 76 Alphabetic symbol ordering
Absolute symbols

      At line 1121 in file MKL05Z4.s
   Uses
      None
Comment: MCG_C4 unused
MCG_C4_DMX32_MASK 00000080

Symbol: MCG_C4_DMX32_MASK
   Definitions
      At line 1215 in file MKL05Z4.s
   Uses
      None
Comment: MCG_C4_DMX32_MASK unused
MCG_C4_DMX32_SHIFT 00000007

Symbol: MCG_C4_DMX32_SHIFT
   Definitions
      At line 1216 in file MKL05Z4.s
   Uses
      None
Comment: MCG_C4_DMX32_SHIFT unused
MCG_C4_DRST_DRS_MASK 00000060

Symbol: MCG_C4_DRST_DRS_MASK
   Definitions
      At line 1217 in file MKL05Z4.s
   Uses
      None
Comment: MCG_C4_DRST_DRS_MASK unused
MCG_C4_DRST_DRS_SHIFT 00000005

Symbol: MCG_C4_DRST_DRS_SHIFT
   Definitions
      At line 1218 in file MKL05Z4.s
   Uses
      None
Comment: MCG_C4_DRST_DRS_SHIFT unused
MCG_C4_FCTRIM_MASK 0000001E

Symbol: MCG_C4_FCTRIM_MASK
   Definitions
      At line 1219 in file MKL05Z4.s
   Uses
      None
Comment: MCG_C4_FCTRIM_MASK unused
MCG_C4_FCTRIM_SHIFT 00000001

Symbol: MCG_C4_FCTRIM_SHIFT
   Definitions
      At line 1220 in file MKL05Z4.s
   Uses
      None
Comment: MCG_C4_FCTRIM_SHIFT unused
MCG_C4_OFFSET 00000003

Symbol: MCG_C4_OFFSET
   Definitions
      At line 1112 in file MKL05Z4.s
   Uses
      At line 1121 in file MKL05Z4.s



ARM Macro Assembler    Page 77 Alphabetic symbol ordering
Absolute symbols

Comment: MCG_C4_OFFSET used once
MCG_C4_SCFTRIM_MASK 00000001

Symbol: MCG_C4_SCFTRIM_MASK
   Definitions
      At line 1221 in file MKL05Z4.s
   Uses
      None
Comment: MCG_C4_SCFTRIM_MASK unused
MCG_C4_SCFTRIM_SHIFT 00000000

Symbol: MCG_C4_SCFTRIM_SHIFT
   Definitions
      At line 1222 in file MKL05Z4.s
   Uses
      None
Comment: MCG_C4_SCFTRIM_SHIFT unused
MCG_C6 40064005

Symbol: MCG_C6
   Definitions
      At line 1122 in file MKL05Z4.s
   Uses
      None
Comment: MCG_C6 unused
MCG_C6_CME_MASK 00000020

Symbol: MCG_C6_CME_MASK
   Definitions
      At line 1228 in file MKL05Z4.s
   Uses
      None
Comment: MCG_C6_CME_MASK unused
MCG_C6_CME_SHIFT 00000005

Symbol: MCG_C6_CME_SHIFT
   Definitions
      At line 1229 in file MKL05Z4.s
   Uses
      None
Comment: MCG_C6_CME_SHIFT unused
MCG_C6_OFFSET 00000005

Symbol: MCG_C6_OFFSET
   Definitions
      At line 1113 in file MKL05Z4.s
   Uses
      At line 1122 in file MKL05Z4.s
Comment: MCG_C6_OFFSET used once
MCG_IPR E000E418

Symbol: MCG_IPR
   Definitions
      At line 1465 in file MKL05Z4.s
   Uses
      None
Comment: MCG_IPR unused
MCG_IRQ_MASK 08000000




ARM Macro Assembler    Page 78 Alphabetic symbol ordering
Absolute symbols

Symbol: MCG_IRQ_MASK
   Definitions
      At line 1535 in file MKL05Z4.s
   Uses
      None
Comment: MCG_IRQ_MASK unused
MCG_IRQn 0000001B

Symbol: MCG_IRQn
   Definitions
      At line 184 in file MKL05Z4.s
   Uses
      At line 1535 in file MKL05Z4.s
Comment: MCG_IRQn used once
MCG_PRI_POS 0000001E

Symbol: MCG_PRI_POS
   Definitions
      At line 1501 in file MKL05Z4.s
   Uses
      None
Comment: MCG_PRI_POS unused
MCG_S 40064006

Symbol: MCG_S
   Definitions
      At line 1123 in file MKL05Z4.s
   Uses
      None
Comment: MCG_S unused
MCG_SC 40064008

Symbol: MCG_SC
   Definitions
      At line 1124 in file MKL05Z4.s
   Uses
      None
Comment: MCG_SC unused
MCG_SC_ATME_MASK 00000080

Symbol: MCG_SC_ATME_MASK
   Definitions
      At line 1271 in file MKL05Z4.s
   Uses
      None
Comment: MCG_SC_ATME_MASK unused
MCG_SC_ATME_SHIFT 00000007

Symbol: MCG_SC_ATME_SHIFT
   Definitions
      At line 1272 in file MKL05Z4.s
   Uses
      None
Comment: MCG_SC_ATME_SHIFT unused
MCG_SC_ATMF_MASK 00000020

Symbol: MCG_SC_ATMF_MASK
   Definitions
      At line 1275 in file MKL05Z4.s



ARM Macro Assembler    Page 79 Alphabetic symbol ordering
Absolute symbols

   Uses
      None
Comment: MCG_SC_ATMF_MASK unused
MCG_SC_ATMF_SHIFT 00000005

Symbol: MCG_SC_ATMF_SHIFT
   Definitions
      At line 1276 in file MKL05Z4.s
   Uses
      None
Comment: MCG_SC_ATMF_SHIFT unused
MCG_SC_ATMS_MASK 00000040

Symbol: MCG_SC_ATMS_MASK
   Definitions
      At line 1273 in file MKL05Z4.s
   Uses
      None
Comment: MCG_SC_ATMS_MASK unused
MCG_SC_ATMS_SHIFT 00000006

Symbol: MCG_SC_ATMS_SHIFT
   Definitions
      At line 1274 in file MKL05Z4.s
   Uses
      None
Comment: MCG_SC_ATMS_SHIFT unused
MCG_SC_FCRDIV_MASK 0000000E

Symbol: MCG_SC_FCRDIV_MASK
   Definitions
      At line 1279 in file MKL05Z4.s
   Uses
      None
Comment: MCG_SC_FCRDIV_MASK unused
MCG_SC_FCRDIV_SHIFT 00000001

Symbol: MCG_SC_FCRDIV_SHIFT
   Definitions
      At line 1280 in file MKL05Z4.s
   Uses
      None
Comment: MCG_SC_FCRDIV_SHIFT unused
MCG_SC_FLTPRSRV_MASK 00000010

Symbol: MCG_SC_FLTPRSRV_MASK
   Definitions
      At line 1277 in file MKL05Z4.s
   Uses
      None
Comment: MCG_SC_FLTPRSRV_MASK unused
MCG_SC_FLTPRSRV_SHIFT 00000004

Symbol: MCG_SC_FLTPRSRV_SHIFT
   Definitions
      At line 1278 in file MKL05Z4.s
   Uses
      None
Comment: MCG_SC_FLTPRSRV_SHIFT unused



ARM Macro Assembler    Page 80 Alphabetic symbol ordering
Absolute symbols

MCG_SC_LOCS0_MASK 00000001

Symbol: MCG_SC_LOCS0_MASK
   Definitions
      At line 1281 in file MKL05Z4.s
   Uses
      None
Comment: MCG_SC_LOCS0_MASK unused
MCG_SC_LOCS0_SHIFT 00000000

Symbol: MCG_SC_LOCS0_SHIFT
   Definitions
      At line 1282 in file MKL05Z4.s
   Uses
      None
Comment: MCG_SC_LOCS0_SHIFT unused
MCG_SC_OFFSET 00000008

Symbol: MCG_SC_OFFSET
   Definitions
      At line 1115 in file MKL05Z4.s
   Uses
      At line 1124 in file MKL05Z4.s
Comment: MCG_SC_OFFSET used once
MCG_S_CLKST_MASK 0000000C

Symbol: MCG_S_CLKST_MASK
   Definitions
      At line 1247 in file MKL05Z4.s
   Uses
      None
Comment: MCG_S_CLKST_MASK unused
MCG_S_CLKST_SHIFT 00000002

Symbol: MCG_S_CLKST_SHIFT
   Definitions
      At line 1248 in file MKL05Z4.s
   Uses
      None
Comment: MCG_S_CLKST_SHIFT unused
MCG_S_IRCST_MASK 00000001

Symbol: MCG_S_IRCST_MASK
   Definitions
      At line 1251 in file MKL05Z4.s
   Uses
      None
Comment: MCG_S_IRCST_MASK unused
MCG_S_IRCST_SHIFT 00000000

Symbol: MCG_S_IRCST_SHIFT
   Definitions
      At line 1252 in file MKL05Z4.s
   Uses
      None
Comment: MCG_S_IRCST_SHIFT unused
MCG_S_IREFST_MASK 00000010

Symbol: MCG_S_IREFST_MASK



ARM Macro Assembler    Page 81 Alphabetic symbol ordering
Absolute symbols

   Definitions
      At line 1245 in file MKL05Z4.s
   Uses
      None
Comment: MCG_S_IREFST_MASK unused
MCG_S_IREFST_SHIFT 00000004

Symbol: MCG_S_IREFST_SHIFT
   Definitions
      At line 1246 in file MKL05Z4.s
   Uses
      None
Comment: MCG_S_IREFST_SHIFT unused
MCG_S_OFFSET 00000006

Symbol: MCG_S_OFFSET
   Definitions
      At line 1114 in file MKL05Z4.s
   Uses
      At line 1123 in file MKL05Z4.s
Comment: MCG_S_OFFSET used once
MCG_S_OSCINIT0_MASK 00000002

Symbol: MCG_S_OSCINIT0_MASK
   Definitions
      At line 1249 in file MKL05Z4.s
   Uses
      None
Comment: MCG_S_OSCINIT0_MASK unused
MCG_S_OSCINIT0_SHIFT 00000001

Symbol: MCG_S_OSCINIT0_SHIFT
   Definitions
      At line 1250 in file MKL05Z4.s
   Uses
      None
Comment: MCG_S_OSCINIT0_SHIFT unused
MCG_Vector 0000002B

Symbol: MCG_Vector
   Definitions
      At line 1586 in file MKL05Z4.s
   Uses
      None
Comment: MCG_Vector unused
MCU_MEM_MAP_VERSION 00000100

Symbol: MCU_MEM_MAP_VERSION
   Definitions
      At line 192 in file MKL05Z4.s
   Uses
      None
Comment: MCU_MEM_MAP_VERSION unused
MCU_MEM_MAP_VERSION_MINOR 00000006

Symbol: MCU_MEM_MAP_VERSION_MINOR
   Definitions
      At line 194 in file MKL05Z4.s
   Uses



ARM Macro Assembler    Page 82 Alphabetic symbol ordering
Absolute symbols

      None
Comment: MCU_MEM_MAP_VERSION_MINOR unused
NIBBLE_BITS 00000004

Symbol: NIBBLE_BITS
   Definitions
      At line 37 in file MKL05Z4.s
   Uses
      None
Comment: NIBBLE_BITS unused
NIBBLE_MASK 0000000F

Symbol: NIBBLE_MASK
   Definitions
      At line 34 in file MKL05Z4.s
   Uses
      None
Comment: NIBBLE_MASK unused
NMI_Vector 00000002

Symbol: NMI_Vector
   Definitions
      At line 1544 in file MKL05Z4.s
   Uses
      None
Comment: NMI_Vector unused
NULL 00000000

Symbol: NULL
   Definitions
      At line 26 in file Ex_12.s
   Uses
      At line 1052 in file Ex_12.s
      At line 1384 in file Ex_12.s
      At line 1437 in file Ex_12.s

NUM_ENQD 00000011

Symbol: NUM_ENQD
   Definitions
      At line 58 in file Ex_12.s
   Uses
      None
Comment: NUM_ENQD unused
NVIC_BASE E000E100

Symbol: NVIC_BASE
   Definitions
      At line 1411 in file MKL05Z4.s
   Uses
      At line 1424 in file MKL05Z4.s
      At line 1425 in file MKL05Z4.s
      At line 1426 in file MKL05Z4.s
      At line 1427 in file MKL05Z4.s
      At line 1428 in file MKL05Z4.s
      At line 1429 in file MKL05Z4.s
      At line 1430 in file MKL05Z4.s
      At line 1431 in file MKL05Z4.s
      At line 1432 in file MKL05Z4.s



ARM Macro Assembler    Page 83 Alphabetic symbol ordering
Absolute symbols

      At line 1433 in file MKL05Z4.s
      At line 1434 in file MKL05Z4.s
      At line 1435 in file MKL05Z4.s

NVIC_ICER E000E180

Symbol: NVIC_ICER
   Definitions
      At line 1425 in file MKL05Z4.s
   Uses
      None
Comment: NVIC_ICER unused
NVIC_ICER_OFFSET 00000080

Symbol: NVIC_ICER_OFFSET
   Definitions
      At line 1413 in file MKL05Z4.s
   Uses
      At line 1425 in file MKL05Z4.s
Comment: NVIC_ICER_OFFSET used once
NVIC_ICER_PIT_MASK 00400000

Symbol: NVIC_ICER_PIT_MASK
   Definitions
      At line 67 in file Ex_12.s
   Uses
      None
Comment: NVIC_ICER_PIT_MASK unused
NVIC_ICER_UART0_MASK 00001000

Symbol: NVIC_ICER_UART0_MASK
   Definitions
      At line 68 in file Ex_12.s
   Uses
      At line 1186 in file Ex_12.s
Comment: NVIC_ICER_UART0_MASK used once
NVIC_ICPR E000E280

Symbol: NVIC_ICPR
   Definitions
      At line 1427 in file MKL05Z4.s
   Uses
      At line 1181 in file Ex_12.s
      At line 1224 in file Ex_12.s
      At line 1320 in file Ex_12.s

NVIC_ICPR_OFFSET 00000180

Symbol: NVIC_ICPR_OFFSET
   Definitions
      At line 1415 in file MKL05Z4.s
   Uses
      At line 1427 in file MKL05Z4.s
Comment: NVIC_ICPR_OFFSET used once
NVIC_ICPR_PIT_MASK 00400000

Symbol: NVIC_ICPR_PIT_MASK
   Definitions
      At line 77 in file Ex_12.s



ARM Macro Assembler    Page 84 Alphabetic symbol ordering
Absolute symbols

   Uses
      At line 1225 in file Ex_12.s
Comment: NVIC_ICPR_PIT_MASK used once
NVIC_ICPR_UART0_MASK 00001000

Symbol: NVIC_ICPR_UART0_MASK
   Definitions
      At line 78 in file Ex_12.s
   Uses
      At line 1182 in file Ex_12.s
      At line 1321 in file Ex_12.s

NVIC_IPR0 E000E400

Symbol: NVIC_IPR0
   Definitions
      At line 1428 in file MKL05Z4.s
   Uses
      At line 1438 in file MKL05Z4.s
      At line 1439 in file MKL05Z4.s
      At line 1440 in file MKL05Z4.s
      At line 1441 in file MKL05Z4.s

NVIC_IPR0_OFFSET 00000300

Symbol: NVIC_IPR0_OFFSET
   Definitions
      At line 1416 in file MKL05Z4.s
   Uses
      At line 1428 in file MKL05Z4.s
Comment: NVIC_IPR0_OFFSET used once
NVIC_IPR1 E000E404

Symbol: NVIC_IPR1
   Definitions
      At line 1429 in file MKL05Z4.s
   Uses
      At line 1442 in file MKL05Z4.s
      At line 1443 in file MKL05Z4.s
      At line 1444 in file MKL05Z4.s
      At line 1445 in file MKL05Z4.s

NVIC_IPR1_OFFSET 00000304

Symbol: NVIC_IPR1_OFFSET
   Definitions
      At line 1417 in file MKL05Z4.s
   Uses
      At line 1429 in file MKL05Z4.s
Comment: NVIC_IPR1_OFFSET used once
NVIC_IPR2 E000E408

Symbol: NVIC_IPR2
   Definitions
      At line 1430 in file MKL05Z4.s
   Uses
      At line 1446 in file MKL05Z4.s
      At line 1447 in file MKL05Z4.s
      At line 1448 in file MKL05Z4.s



ARM Macro Assembler    Page 85 Alphabetic symbol ordering
Absolute symbols

      At line 1449 in file MKL05Z4.s

NVIC_IPR2_OFFSET 00000308

Symbol: NVIC_IPR2_OFFSET
   Definitions
      At line 1418 in file MKL05Z4.s
   Uses
      At line 1430 in file MKL05Z4.s
Comment: NVIC_IPR2_OFFSET used once
NVIC_IPR3 E000E40C

Symbol: NVIC_IPR3
   Definitions
      At line 1431 in file MKL05Z4.s
   Uses
      At line 1450 in file MKL05Z4.s
      At line 1451 in file MKL05Z4.s
      At line 1452 in file MKL05Z4.s
      At line 1453 in file MKL05Z4.s

NVIC_IPR3_OFFSET 0000030C

Symbol: NVIC_IPR3_OFFSET
   Definitions
      At line 1419 in file MKL05Z4.s
   Uses
      At line 1431 in file MKL05Z4.s
Comment: NVIC_IPR3_OFFSET used once
NVIC_IPR4 E000E410

Symbol: NVIC_IPR4
   Definitions
      At line 1432 in file MKL05Z4.s
   Uses
      At line 1454 in file MKL05Z4.s
      At line 1455 in file MKL05Z4.s
      At line 1456 in file MKL05Z4.s
      At line 1457 in file MKL05Z4.s

NVIC_IPR4_OFFSET 00000310

Symbol: NVIC_IPR4_OFFSET
   Definitions
      At line 1420 in file MKL05Z4.s
   Uses
      At line 1432 in file MKL05Z4.s
Comment: NVIC_IPR4_OFFSET used once
NVIC_IPR5 E000E414

Symbol: NVIC_IPR5
   Definitions
      At line 1433 in file MKL05Z4.s
   Uses
      At line 1458 in file MKL05Z4.s
      At line 1459 in file MKL05Z4.s
      At line 1460 in file MKL05Z4.s
      At line 1461 in file MKL05Z4.s




ARM Macro Assembler    Page 86 Alphabetic symbol ordering
Absolute symbols

NVIC_IPR5_OFFSET 00000314

Symbol: NVIC_IPR5_OFFSET
   Definitions
      At line 1421 in file MKL05Z4.s
   Uses
      At line 1433 in file MKL05Z4.s
Comment: NVIC_IPR5_OFFSET used once
NVIC_IPR6 E000E418

Symbol: NVIC_IPR6
   Definitions
      At line 1434 in file MKL05Z4.s
   Uses
      At line 1462 in file MKL05Z4.s
      At line 1463 in file MKL05Z4.s
      At line 1464 in file MKL05Z4.s
      At line 1465 in file MKL05Z4.s

NVIC_IPR6_OFFSET 00000318

Symbol: NVIC_IPR6_OFFSET
   Definitions
      At line 1422 in file MKL05Z4.s
   Uses
      At line 1434 in file MKL05Z4.s
Comment: NVIC_IPR6_OFFSET used once
NVIC_IPR7 E000E41C

Symbol: NVIC_IPR7
   Definitions
      At line 1435 in file MKL05Z4.s
   Uses
      At line 1466 in file MKL05Z4.s
      At line 1467 in file MKL05Z4.s
      At line 1468 in file MKL05Z4.s
      At line 1469 in file MKL05Z4.s

NVIC_IPR7_OFFSET 0000031C

Symbol: NVIC_IPR7_OFFSET
   Definitions
      At line 1423 in file MKL05Z4.s
   Uses
      At line 1435 in file MKL05Z4.s
Comment: NVIC_IPR7_OFFSET used once
NVIC_IPR_PIT_MASK 00C00000

Symbol: NVIC_IPR_PIT_MASK
   Definitions
      At line 84 in file Ex_12.s
   Uses
      At line 1215 in file Ex_12.s
Comment: NVIC_IPR_PIT_MASK used once
NVIC_IPR_PIT_PRI_0 00000000

Symbol: NVIC_IPR_PIT_PRI_0
   Definitions
      At line 85 in file Ex_12.s



ARM Macro Assembler    Page 87 Alphabetic symbol ordering
Absolute symbols

   Uses
      None
Comment: NVIC_IPR_PIT_PRI_0 unused
NVIC_IPR_UART0_MASK 000000C0

Symbol: NVIC_IPR_UART0_MASK
   Definitions
      At line 88 in file Ex_12.s
   Uses
      None
Comment: NVIC_IPR_UART0_MASK unused
NVIC_IPR_UART0_PRI_3 000000C0

Symbol: NVIC_IPR_UART0_PRI_3
   Definitions
      At line 89 in file Ex_12.s
   Uses
      At line 1174 in file Ex_12.s
      At line 1314 in file Ex_12.s

NVIC_ISER E000E100

Symbol: NVIC_ISER
   Definitions
      At line 1424 in file MKL05Z4.s
   Uses
      At line 1185 in file Ex_12.s
      At line 1228 in file Ex_12.s
      At line 1325 in file Ex_12.s

NVIC_ISER_OFFSET 00000000

Symbol: NVIC_ISER_OFFSET
   Definitions
      At line 1412 in file MKL05Z4.s
   Uses
      At line 1424 in file MKL05Z4.s
Comment: NVIC_ISER_OFFSET used once
NVIC_ISER_PIT_MASK 00400000

Symbol: NVIC_ISER_PIT_MASK
   Definitions
      At line 97 in file Ex_12.s
   Uses
      At line 1229 in file Ex_12.s
Comment: NVIC_ISER_PIT_MASK used once
NVIC_ISER_UART0_MASK 00001000

Symbol: NVIC_ISER_UART0_MASK
   Definitions
      At line 98 in file Ex_12.s
   Uses
      At line 1326 in file Ex_12.s
Comment: NVIC_ISER_UART0_MASK used once
NVIC_ISPR E000E200

Symbol: NVIC_ISPR
   Definitions
      At line 1426 in file MKL05Z4.s



ARM Macro Assembler    Page 88 Alphabetic symbol ordering
Absolute symbols

   Uses
      None
Comment: NVIC_ISPR unused
NVIC_ISPR_OFFSET 00000100

Symbol: NVIC_ISPR_OFFSET
   Definitions
      At line 1414 in file MKL05Z4.s
   Uses
      At line 1426 in file MKL05Z4.s
Comment: NVIC_ISPR_OFFSET used once
NV_BACKKEY0 00000403

Symbol: NV_BACKKEY0
   Definitions
      At line 1315 in file MKL05Z4.s
   Uses
      None
Comment: NV_BACKKEY0 unused
NV_BACKKEY0_KEY_MASK 000000FF

Symbol: NV_BACKKEY0_KEY_MASK
   Definitions
      At line 1340 in file MKL05Z4.s
   Uses
      None
Comment: NV_BACKKEY0_KEY_MASK unused
NV_BACKKEY0_KEY_SHIFT 00000000

Symbol: NV_BACKKEY0_KEY_SHIFT
   Definitions
      At line 1341 in file MKL05Z4.s
   Uses
      None
Comment: NV_BACKKEY0_KEY_SHIFT unused
NV_BACKKEY0_OFFSET 00000003

Symbol: NV_BACKKEY0_OFFSET
   Definitions
      At line 1301 in file MKL05Z4.s
   Uses
      At line 1315 in file MKL05Z4.s
Comment: NV_BACKKEY0_OFFSET used once
NV_BACKKEY1 00000402

Symbol: NV_BACKKEY1
   Definitions
      At line 1314 in file MKL05Z4.s
   Uses
      None
Comment: NV_BACKKEY1 unused
NV_BACKKEY1_KEY_MASK 000000FF

Symbol: NV_BACKKEY1_KEY_MASK
   Definitions
      At line 1336 in file MKL05Z4.s
   Uses
      None
Comment: NV_BACKKEY1_KEY_MASK unused



ARM Macro Assembler    Page 89 Alphabetic symbol ordering
Absolute symbols

NV_BACKKEY1_KEY_SHIFT 00000000

Symbol: NV_BACKKEY1_KEY_SHIFT
   Definitions
      At line 1337 in file MKL05Z4.s
   Uses
      None
Comment: NV_BACKKEY1_KEY_SHIFT unused
NV_BACKKEY1_OFFSET 00000002

Symbol: NV_BACKKEY1_OFFSET
   Definitions
      At line 1300 in file MKL05Z4.s
   Uses
      At line 1314 in file MKL05Z4.s
Comment: NV_BACKKEY1_OFFSET used once
NV_BACKKEY2 00000401

Symbol: NV_BACKKEY2
   Definitions
      At line 1313 in file MKL05Z4.s
   Uses
      None
Comment: NV_BACKKEY2 unused
NV_BACKKEY2_KEY_MASK 000000FF

Symbol: NV_BACKKEY2_KEY_MASK
   Definitions
      At line 1332 in file MKL05Z4.s
   Uses
      None
Comment: NV_BACKKEY2_KEY_MASK unused
NV_BACKKEY2_KEY_SHIFT 00000000

Symbol: NV_BACKKEY2_KEY_SHIFT
   Definitions
      At line 1333 in file MKL05Z4.s
   Uses
      None
Comment: NV_BACKKEY2_KEY_SHIFT unused
NV_BACKKEY2_OFFSET 00000001

Symbol: NV_BACKKEY2_OFFSET
   Definitions
      At line 1299 in file MKL05Z4.s
   Uses
      At line 1313 in file MKL05Z4.s
Comment: NV_BACKKEY2_OFFSET used once
NV_BACKKEY3 00000400

Symbol: NV_BACKKEY3
   Definitions
      At line 1312 in file MKL05Z4.s
   Uses
      None
Comment: NV_BACKKEY3 unused
NV_BACKKEY3_KEY_MASK 000000FF

Symbol: NV_BACKKEY3_KEY_MASK



ARM Macro Assembler    Page 90 Alphabetic symbol ordering
Absolute symbols

   Definitions
      At line 1328 in file MKL05Z4.s
   Uses
      None
Comment: NV_BACKKEY3_KEY_MASK unused
NV_BACKKEY3_KEY_SHIFT 00000000

Symbol: NV_BACKKEY3_KEY_SHIFT
   Definitions
      At line 1329 in file MKL05Z4.s
   Uses
      None
Comment: NV_BACKKEY3_KEY_SHIFT unused
NV_BACKKEY3_OFFSET 00000000

Symbol: NV_BACKKEY3_OFFSET
   Definitions
      At line 1298 in file MKL05Z4.s
   Uses
      At line 1312 in file MKL05Z4.s
Comment: NV_BACKKEY3_OFFSET used once
NV_BACKKEY4 00000407

Symbol: NV_BACKKEY4
   Definitions
      At line 1319 in file MKL05Z4.s
   Uses
      None
Comment: NV_BACKKEY4 unused
NV_BACKKEY4_KEY_MASK 000000FF

Symbol: NV_BACKKEY4_KEY_MASK
   Definitions
      At line 1356 in file MKL05Z4.s
   Uses
      None
Comment: NV_BACKKEY4_KEY_MASK unused
NV_BACKKEY4_KEY_SHIFT 00000000

Symbol: NV_BACKKEY4_KEY_SHIFT
   Definitions
      At line 1357 in file MKL05Z4.s
   Uses
      None
Comment: NV_BACKKEY4_KEY_SHIFT unused
NV_BACKKEY4_OFFSET 00000007

Symbol: NV_BACKKEY4_OFFSET
   Definitions
      At line 1305 in file MKL05Z4.s
   Uses
      At line 1319 in file MKL05Z4.s
Comment: NV_BACKKEY4_OFFSET used once
NV_BACKKEY5 00000406

Symbol: NV_BACKKEY5
   Definitions
      At line 1318 in file MKL05Z4.s
   Uses



ARM Macro Assembler    Page 91 Alphabetic symbol ordering
Absolute symbols

      None
Comment: NV_BACKKEY5 unused
NV_BACKKEY5_KEY_MASK 000000FF

Symbol: NV_BACKKEY5_KEY_MASK
   Definitions
      At line 1352 in file MKL05Z4.s
   Uses
      None
Comment: NV_BACKKEY5_KEY_MASK unused
NV_BACKKEY5_KEY_SHIFT 00000000

Symbol: NV_BACKKEY5_KEY_SHIFT
   Definitions
      At line 1353 in file MKL05Z4.s
   Uses
      None
Comment: NV_BACKKEY5_KEY_SHIFT unused
NV_BACKKEY5_OFFSET 00000006

Symbol: NV_BACKKEY5_OFFSET
   Definitions
      At line 1304 in file MKL05Z4.s
   Uses
      At line 1318 in file MKL05Z4.s
Comment: NV_BACKKEY5_OFFSET used once
NV_BACKKEY6 00000405

Symbol: NV_BACKKEY6
   Definitions
      At line 1317 in file MKL05Z4.s
   Uses
      None
Comment: NV_BACKKEY6 unused
NV_BACKKEY6_KEY_MASK 000000FF

Symbol: NV_BACKKEY6_KEY_MASK
   Definitions
      At line 1348 in file MKL05Z4.s
   Uses
      None
Comment: NV_BACKKEY6_KEY_MASK unused
NV_BACKKEY6_KEY_SHIFT 00000000

Symbol: NV_BACKKEY6_KEY_SHIFT
   Definitions
      At line 1349 in file MKL05Z4.s
   Uses
      None
Comment: NV_BACKKEY6_KEY_SHIFT unused
NV_BACKKEY6_OFFSET 00000005

Symbol: NV_BACKKEY6_OFFSET
   Definitions
      At line 1303 in file MKL05Z4.s
   Uses
      At line 1317 in file MKL05Z4.s
Comment: NV_BACKKEY6_OFFSET used once
NV_BACKKEY7 00000404



ARM Macro Assembler    Page 92 Alphabetic symbol ordering
Absolute symbols


Symbol: NV_BACKKEY7
   Definitions
      At line 1316 in file MKL05Z4.s
   Uses
      None
Comment: NV_BACKKEY7 unused
NV_BACKKEY7_KEY_MASK 000000FF

Symbol: NV_BACKKEY7_KEY_MASK
   Definitions
      At line 1344 in file MKL05Z4.s
   Uses
      None
Comment: NV_BACKKEY7_KEY_MASK unused
NV_BACKKEY7_KEY_SHIFT 00000000

Symbol: NV_BACKKEY7_KEY_SHIFT
   Definitions
      At line 1345 in file MKL05Z4.s
   Uses
      None
Comment: NV_BACKKEY7_KEY_SHIFT unused
NV_BACKKEY7_OFFSET 00000004

Symbol: NV_BACKKEY7_OFFSET
   Definitions
      At line 1302 in file MKL05Z4.s
   Uses
      At line 1316 in file MKL05Z4.s
Comment: NV_BACKKEY7_OFFSET used once
NV_BASE 00000400

Symbol: NV_BASE
   Definitions
      At line 1297 in file MKL05Z4.s
   Uses
      At line 1312 in file MKL05Z4.s
      At line 1313 in file MKL05Z4.s
      At line 1314 in file MKL05Z4.s
      At line 1315 in file MKL05Z4.s
      At line 1316 in file MKL05Z4.s
      At line 1317 in file MKL05Z4.s
      At line 1318 in file MKL05Z4.s
      At line 1319 in file MKL05Z4.s
      At line 1320 in file MKL05Z4.s
      At line 1321 in file MKL05Z4.s
      At line 1322 in file MKL05Z4.s
      At line 1323 in file MKL05Z4.s
      At line 1324 in file MKL05Z4.s
      At line 1325 in file MKL05Z4.s

NV_FOPT 0000040D

Symbol: NV_FOPT
   Definitions
      At line 1325 in file MKL05Z4.s
   Uses
      None



ARM Macro Assembler    Page 93 Alphabetic symbol ordering
Absolute symbols

Comment: NV_FOPT unused
NV_FOPT_FAST_INIT_MASK 00000020

Symbol: NV_FOPT_FAST_INIT_MASK
   Definitions
      At line 1406 in file MKL05Z4.s
   Uses
      None
Comment: NV_FOPT_FAST_INIT_MASK unused
NV_FOPT_FAST_INIT_SHIFT 00000005

Symbol: NV_FOPT_FAST_INIT_SHIFT
   Definitions
      At line 1407 in file MKL05Z4.s
   Uses
      None
Comment: NV_FOPT_FAST_INIT_SHIFT unused
NV_FOPT_LPBOOT0_MASK 00000001

Symbol: NV_FOPT_LPBOOT0_MASK
   Definitions
      At line 1398 in file MKL05Z4.s
   Uses
      None
Comment: NV_FOPT_LPBOOT0_MASK unused
NV_FOPT_LPBOOT0_SHIFT 00000000

Symbol: NV_FOPT_LPBOOT0_SHIFT
   Definitions
      At line 1399 in file MKL05Z4.s
   Uses
      None
Comment: NV_FOPT_LPBOOT0_SHIFT unused
NV_FOPT_LPBOOT1_MASK 00000010

Symbol: NV_FOPT_LPBOOT1_MASK
   Definitions
      At line 1404 in file MKL05Z4.s
   Uses
      None
Comment: NV_FOPT_LPBOOT1_MASK unused
NV_FOPT_LPBOOT1_SHIFT 00000004

Symbol: NV_FOPT_LPBOOT1_SHIFT
   Definitions
      At line 1405 in file MKL05Z4.s
   Uses
      None
Comment: NV_FOPT_LPBOOT1_SHIFT unused
NV_FOPT_NMI_DIS_MASK 00000004

Symbol: NV_FOPT_NMI_DIS_MASK
   Definitions
      At line 1400 in file MKL05Z4.s
   Uses
      None
Comment: NV_FOPT_NMI_DIS_MASK unused
NV_FOPT_NMI_DIS_SHIFT 00000002




ARM Macro Assembler    Page 94 Alphabetic symbol ordering
Absolute symbols

Symbol: NV_FOPT_NMI_DIS_SHIFT
   Definitions
      At line 1401 in file MKL05Z4.s
   Uses
      None
Comment: NV_FOPT_NMI_DIS_SHIFT unused
NV_FOPT_OFFSET 0000000D

Symbol: NV_FOPT_OFFSET
   Definitions
      At line 1311 in file MKL05Z4.s
   Uses
      At line 1325 in file MKL05Z4.s
Comment: NV_FOPT_OFFSET used once
NV_FOPT_RESET_PIN_CFG_MASK 00000008

Symbol: NV_FOPT_RESET_PIN_CFG_MASK
   Definitions
      At line 1402 in file MKL05Z4.s
   Uses
      None
Comment: NV_FOPT_RESET_PIN_CFG_MASK unused
NV_FOPT_RESET_PIN_CFG_SHIFT 00000003

Symbol: NV_FOPT_RESET_PIN_CFG_SHIFT
   Definitions
      At line 1403 in file MKL05Z4.s
   Uses
      None
Comment: NV_FOPT_RESET_PIN_CFG_SHIFT unused
NV_FPROT0 0000040B

Symbol: NV_FPROT0
   Definitions
      At line 1323 in file MKL05Z4.s
   Uses
      None
Comment: NV_FPROT0 unused
NV_FPROT0_OFFSET 0000000B

Symbol: NV_FPROT0_OFFSET
   Definitions
      At line 1309 in file MKL05Z4.s
   Uses
      At line 1323 in file MKL05Z4.s
Comment: NV_FPROT0_OFFSET used once
NV_FPROT0_PROT_MASK 000000FF

Symbol: NV_FPROT0_PROT_MASK
   Definitions
      At line 1372 in file MKL05Z4.s
   Uses
      None
Comment: NV_FPROT0_PROT_MASK unused
NV_FPROT0_PROT_SHIFT 00000000

Symbol: NV_FPROT0_PROT_SHIFT
   Definitions
      At line 1373 in file MKL05Z4.s



ARM Macro Assembler    Page 95 Alphabetic symbol ordering
Absolute symbols

   Uses
      None
Comment: NV_FPROT0_PROT_SHIFT unused
NV_FPROT1 0000040A

Symbol: NV_FPROT1
   Definitions
      At line 1322 in file MKL05Z4.s
   Uses
      None
Comment: NV_FPROT1 unused
NV_FPROT1_OFFSET 0000000A

Symbol: NV_FPROT1_OFFSET
   Definitions
      At line 1308 in file MKL05Z4.s
   Uses
      At line 1322 in file MKL05Z4.s
Comment: NV_FPROT1_OFFSET used once
NV_FPROT1_PROT_MASK 000000FF

Symbol: NV_FPROT1_PROT_MASK
   Definitions
      At line 1368 in file MKL05Z4.s
   Uses
      None
Comment: NV_FPROT1_PROT_MASK unused
NV_FPROT1_PROT_SHIFT 00000000

Symbol: NV_FPROT1_PROT_SHIFT
   Definitions
      At line 1369 in file MKL05Z4.s
   Uses
      None
Comment: NV_FPROT1_PROT_SHIFT unused
NV_FPROT2 00000409

Symbol: NV_FPROT2
   Definitions
      At line 1321 in file MKL05Z4.s
   Uses
      None
Comment: NV_FPROT2 unused
NV_FPROT2_OFFSET 00000009

Symbol: NV_FPROT2_OFFSET
   Definitions
      At line 1307 in file MKL05Z4.s
   Uses
      At line 1321 in file MKL05Z4.s
Comment: NV_FPROT2_OFFSET used once
NV_FPROT2_PROT_MASK 000000FF

Symbol: NV_FPROT2_PROT_MASK
   Definitions
      At line 1364 in file MKL05Z4.s
   Uses
      None
Comment: NV_FPROT2_PROT_MASK unused



ARM Macro Assembler    Page 96 Alphabetic symbol ordering
Absolute symbols

NV_FPROT2_PROT_SHIFT 00000000

Symbol: NV_FPROT2_PROT_SHIFT
   Definitions
      At line 1365 in file MKL05Z4.s
   Uses
      None
Comment: NV_FPROT2_PROT_SHIFT unused
NV_FPROT3 00000408

Symbol: NV_FPROT3
   Definitions
      At line 1320 in file MKL05Z4.s
   Uses
      None
Comment: NV_FPROT3 unused
NV_FPROT3_OFFSET 00000008

Symbol: NV_FPROT3_OFFSET
   Definitions
      At line 1306 in file MKL05Z4.s
   Uses
      At line 1320 in file MKL05Z4.s
Comment: NV_FPROT3_OFFSET used once
NV_FPROT3_PROT_MASK 000000FF

Symbol: NV_FPROT3_PROT_MASK
   Definitions
      At line 1360 in file MKL05Z4.s
   Uses
      None
Comment: NV_FPROT3_PROT_MASK unused
NV_FPROT3_PROT_SHIFT 00000000

Symbol: NV_FPROT3_PROT_SHIFT
   Definitions
      At line 1361 in file MKL05Z4.s
   Uses
      None
Comment: NV_FPROT3_PROT_SHIFT unused
NV_FSEC 0000040C

Symbol: NV_FSEC
   Definitions
      At line 1324 in file MKL05Z4.s
   Uses
      None
Comment: NV_FSEC unused
NV_FSEC_FSLACC_MASK 0000000C

Symbol: NV_FSEC_FSLACC_MASK
   Definitions
      At line 1390 in file MKL05Z4.s
   Uses
      None
Comment: NV_FSEC_FSLACC_MASK unused
NV_FSEC_FSLACC_SHIFT 00000002

Symbol: NV_FSEC_FSLACC_SHIFT



ARM Macro Assembler    Page 97 Alphabetic symbol ordering
Absolute symbols

   Definitions
      At line 1391 in file MKL05Z4.s
   Uses
      None
Comment: NV_FSEC_FSLACC_SHIFT unused
NV_FSEC_KEYEN_MASK 000000C0

Symbol: NV_FSEC_KEYEN_MASK
   Definitions
      At line 1394 in file MKL05Z4.s
   Uses
      None
Comment: NV_FSEC_KEYEN_MASK unused
NV_FSEC_KEYEN_SHIFT 00000006

Symbol: NV_FSEC_KEYEN_SHIFT
   Definitions
      At line 1395 in file MKL05Z4.s
   Uses
      None
Comment: NV_FSEC_KEYEN_SHIFT unused
NV_FSEC_MEEN_MASK 00000030

Symbol: NV_FSEC_MEEN_MASK
   Definitions
      At line 1392 in file MKL05Z4.s
   Uses
      None
Comment: NV_FSEC_MEEN_MASK unused
NV_FSEC_MEEN_SHIFT 00000004

Symbol: NV_FSEC_MEEN_SHIFT
   Definitions
      At line 1393 in file MKL05Z4.s
   Uses
      None
Comment: NV_FSEC_MEEN_SHIFT unused
NV_FSEC_OFFSET 0000000C

Symbol: NV_FSEC_OFFSET
   Definitions
      At line 1310 in file MKL05Z4.s
   Uses
      At line 1324 in file MKL05Z4.s
Comment: NV_FSEC_OFFSET used once
NV_FSEC_SEC_MASK 00000003

Symbol: NV_FSEC_SEC_MASK
   Definitions
      At line 1388 in file MKL05Z4.s
   Uses
      None
Comment: NV_FSEC_SEC_MASK unused
NV_FSEC_SEC_SHIFT 00000000

Symbol: NV_FSEC_SEC_SHIFT
   Definitions
      At line 1389 in file MKL05Z4.s
   Uses



ARM Macro Assembler    Page 98 Alphabetic symbol ordering
Absolute symbols

      None
Comment: NV_FSEC_SEC_SHIFT unused
N_ascii 0000004E

Symbol: N_ascii
   Definitions
      At line 36 in file Ex_12.s
   Uses
      None
Comment: N_ascii unused
NonMaskableInt_IRQn FFFFFFF2

Symbol: NonMaskableInt_IRQn
   Definitions
      At line 149 in file MKL05Z4.s
   Uses
      None
Comment: NonMaskableInt_IRQn unused
OSC0_BASE 40065000

Symbol: OSC0_BASE
   Definitions
      At line 1593 in file MKL05Z4.s
   Uses
      At line 1595 in file MKL05Z4.s
Comment: OSC0_BASE used once
OSC0_CR 40065000

Symbol: OSC0_CR
   Definitions
      At line 1595 in file MKL05Z4.s
   Uses
      None
Comment: OSC0_CR unused
OSC0_CR_OFFSET 00000000

Symbol: OSC0_CR_OFFSET
   Definitions
      At line 1594 in file MKL05Z4.s
   Uses
      At line 1595 in file MKL05Z4.s
Comment: OSC0_CR_OFFSET used once
OSC_CR_ERCLKEN_MASK 00000080

Symbol: OSC_CR_ERCLKEN_MASK
   Definitions
      At line 1616 in file MKL05Z4.s
   Uses
      None
Comment: OSC_CR_ERCLKEN_MASK unused
OSC_CR_ERCLKEN_SHIFT 00000007

Symbol: OSC_CR_ERCLKEN_SHIFT
   Definitions
      At line 1617 in file MKL05Z4.s
   Uses
      None
Comment: OSC_CR_ERCLKEN_SHIFT unused
OSC_CR_EREFSTEN_MASK 00000020



ARM Macro Assembler    Page 99 Alphabetic symbol ordering
Absolute symbols


Symbol: OSC_CR_EREFSTEN_MASK
   Definitions
      At line 1614 in file MKL05Z4.s
   Uses
      None
Comment: OSC_CR_EREFSTEN_MASK unused
OSC_CR_EREFSTEN_SHIFT 00000005

Symbol: OSC_CR_EREFSTEN_SHIFT
   Definitions
      At line 1615 in file MKL05Z4.s
   Uses
      None
Comment: OSC_CR_EREFSTEN_SHIFT unused
OSC_CR_SC16P_MASK 00000001

Symbol: OSC_CR_SC16P_MASK
   Definitions
      At line 1606 in file MKL05Z4.s
   Uses
      None
Comment: OSC_CR_SC16P_MASK unused
OSC_CR_SC16P_SHIFT 00000000

Symbol: OSC_CR_SC16P_SHIFT
   Definitions
      At line 1607 in file MKL05Z4.s
   Uses
      None
Comment: OSC_CR_SC16P_SHIFT unused
OSC_CR_SC2P_MASK 00000008

Symbol: OSC_CR_SC2P_MASK
   Definitions
      At line 1612 in file MKL05Z4.s
   Uses
      None
Comment: OSC_CR_SC2P_MASK unused
OSC_CR_SC2P_SHIFT 00000003

Symbol: OSC_CR_SC2P_SHIFT
   Definitions
      At line 1613 in file MKL05Z4.s
   Uses
      None
Comment: OSC_CR_SC2P_SHIFT unused
OSC_CR_SC4P_MASK 00000004

Symbol: OSC_CR_SC4P_MASK
   Definitions
      At line 1610 in file MKL05Z4.s
   Uses
      None
Comment: OSC_CR_SC4P_MASK unused
OSC_CR_SC4P_SHIFT 00000002

Symbol: OSC_CR_SC4P_SHIFT
   Definitions



ARM Macro Assembler    Page 100 Alphabetic symbol ordering
Absolute symbols

      At line 1611 in file MKL05Z4.s
   Uses
      None
Comment: OSC_CR_SC4P_SHIFT unused
OSC_CR_SC8P_MASK 00000002

Symbol: OSC_CR_SC8P_MASK
   Definitions
      At line 1608 in file MKL05Z4.s
   Uses
      None
Comment: OSC_CR_SC8P_MASK unused
OSC_CR_SC8P_SHIFT 00000001

Symbol: OSC_CR_SC8P_SHIFT
   Definitions
      At line 1609 in file MKL05Z4.s
   Uses
      None
Comment: OSC_CR_SC8P_SHIFT unused
OUT_PTR 00000004

Symbol: OUT_PTR
   Definitions
      At line 54 in file Ex_12.s
   Uses
      None
Comment: OUT_PTR unused
PIT_BASE 40037000

Symbol: PIT_BASE
   Definitions
      At line 1620 in file MKL05Z4.s
   Uses
      At line 1638 in file MKL05Z4.s
      At line 1639 in file MKL05Z4.s
      At line 1640 in file MKL05Z4.s
      At line 1641 in file MKL05Z4.s
      At line 1642 in file MKL05Z4.s
      At line 1643 in file MKL05Z4.s
      At line 1644 in file MKL05Z4.s
      At line 1645 in file MKL05Z4.s
      At line 1646 in file MKL05Z4.s
      At line 1647 in file MKL05Z4.s
      At line 1648 in file MKL05Z4.s
      At line 1234 in file Ex_12.s

PIT_CH0_BASE 40037100

Symbol: PIT_CH0_BASE
   Definitions
      At line 1621 in file MKL05Z4.s
   Uses
      At line 1150 in file Ex_12.s
      At line 1205 in file Ex_12.s
      At line 1238 in file Ex_12.s

PIT_CH1_BASE 40037110




ARM Macro Assembler    Page 101 Alphabetic symbol ordering
Absolute symbols

Symbol: PIT_CH1_BASE
   Definitions
      At line 1622 in file MKL05Z4.s
   Uses
      None
Comment: PIT_CH1_BASE unused
PIT_CVAL0 40037104

Symbol: PIT_CVAL0
   Definitions
      At line 1642 in file MKL05Z4.s
   Uses
      None
Comment: PIT_CVAL0 unused
PIT_CVAL0_OFFSET 00000104

Symbol: PIT_CVAL0_OFFSET
   Definitions
      At line 1631 in file MKL05Z4.s
   Uses
      At line 1642 in file MKL05Z4.s
Comment: PIT_CVAL0_OFFSET used once
PIT_CVAL1 40037114

Symbol: PIT_CVAL1
   Definitions
      At line 1646 in file MKL05Z4.s
   Uses
      None
Comment: PIT_CVAL1 unused
PIT_CVAL1_OFFSET 00000114

Symbol: PIT_CVAL1_OFFSET
   Definitions
      At line 1635 in file MKL05Z4.s
   Uses
      At line 1646 in file MKL05Z4.s
Comment: PIT_CVAL1_OFFSET used once
PIT_CVAL_OFFSET 00000004

Symbol: PIT_CVAL_OFFSET
   Definitions
      At line 1624 in file MKL05Z4.s
   Uses
      None
Comment: PIT_CVAL_OFFSET unused
PIT_IPR E000E414

Symbol: PIT_IPR
   Definitions
      At line 1460 in file MKL05Z4.s
   Uses
      At line 1214 in file Ex_12.s
Comment: PIT_IPR used once
PIT_IRQ_MASK 00400000

Symbol: PIT_IRQ_MASK
   Definitions
      At line 1530 in file MKL05Z4.s



ARM Macro Assembler    Page 102 Alphabetic symbol ordering
Absolute symbols

   Uses
      At line 67 in file Ex_12.s
      At line 77 in file Ex_12.s
      At line 97 in file Ex_12.s

PIT_IRQ_PRIORITY 00000000

Symbol: PIT_IRQ_PRIORITY
   Definitions
      At line 83 in file Ex_12.s
   Uses
      At line 85 in file Ex_12.s
Comment: PIT_IRQ_PRIORITY used once
PIT_IRQn 00000016

Symbol: PIT_IRQn
   Definitions
      At line 179 in file MKL05Z4.s
   Uses
      At line 1530 in file MKL05Z4.s
Comment: PIT_IRQn used once
PIT_LDVAL0 40037100

Symbol: PIT_LDVAL0
   Definitions
      At line 1641 in file MKL05Z4.s
   Uses
      None
Comment: PIT_LDVAL0 unused
PIT_LDVAL0_OFFSET 00000100

Symbol: PIT_LDVAL0_OFFSET
   Definitions
      At line 1630 in file MKL05Z4.s
   Uses
      At line 1641 in file MKL05Z4.s
Comment: PIT_LDVAL0_OFFSET used once
PIT_LDVAL1 40037110

Symbol: PIT_LDVAL1
   Definitions
      At line 1645 in file MKL05Z4.s
   Uses
      None
Comment: PIT_LDVAL1 unused
PIT_LDVAL1_OFFSET 00000110

Symbol: PIT_LDVAL1_OFFSET
   Definitions
      At line 1634 in file MKL05Z4.s
   Uses
      At line 1645 in file MKL05Z4.s
Comment: PIT_LDVAL1_OFFSET used once
PIT_LDVAL_10ms 0003A8F5

Symbol: PIT_LDVAL_10ms
   Definitions
      At line 108 in file Ex_12.s
   Uses



ARM Macro Assembler    Page 103 Alphabetic symbol ordering
Absolute symbols

      At line 1239 in file Ex_12.s
Comment: PIT_LDVAL_10ms used once
PIT_LDVAL_OFFSET 00000000

Symbol: PIT_LDVAL_OFFSET
   Definitions
      At line 1623 in file MKL05Z4.s
   Uses
      At line 1240 in file Ex_12.s
Comment: PIT_LDVAL_OFFSET used once
PIT_LTMR64H 400370E0

Symbol: PIT_LTMR64H
   Definitions
      At line 1639 in file MKL05Z4.s
   Uses
      None
Comment: PIT_LTMR64H unused
PIT_LTMR64H_OFFSET 000000E0

Symbol: PIT_LTMR64H_OFFSET
   Definitions
      At line 1628 in file MKL05Z4.s
   Uses
      At line 1639 in file MKL05Z4.s
Comment: PIT_LTMR64H_OFFSET used once
PIT_LTMR64L 400370E4

Symbol: PIT_LTMR64L
   Definitions
      At line 1640 in file MKL05Z4.s
   Uses
      None
Comment: PIT_LTMR64L unused
PIT_LTMR64L_OFFSET 000000E4

Symbol: PIT_LTMR64L_OFFSET
   Definitions
      At line 1629 in file MKL05Z4.s
   Uses
      At line 1640 in file MKL05Z4.s
Comment: PIT_LTMR64L_OFFSET used once
PIT_MCR 40037000

Symbol: PIT_MCR
   Definitions
      At line 1638 in file MKL05Z4.s
   Uses
      None
Comment: PIT_MCR unused
PIT_MCR_EN_FRZ 00000001

Symbol: PIT_MCR_EN_FRZ
   Definitions
      At line 115 in file Ex_12.s
   Uses
      At line 1235 in file Ex_12.s
Comment: PIT_MCR_EN_FRZ used once
PIT_MCR_FRZ_MASK 00000001



ARM Macro Assembler    Page 104 Alphabetic symbol ordering
Absolute symbols


Symbol: PIT_MCR_FRZ_MASK
   Definitions
      At line 1677 in file MKL05Z4.s
   Uses
      At line 115 in file Ex_12.s
Comment: PIT_MCR_FRZ_MASK used once
PIT_MCR_FRZ_SHIFT 00000000

Symbol: PIT_MCR_FRZ_SHIFT
   Definitions
      At line 1678 in file MKL05Z4.s
   Uses
      None
Comment: PIT_MCR_FRZ_SHIFT unused
PIT_MCR_MDIS_MASK 00000002

Symbol: PIT_MCR_MDIS_MASK
   Definitions
      At line 1675 in file MKL05Z4.s
   Uses
      None
Comment: PIT_MCR_MDIS_MASK unused
PIT_MCR_MDIS_SHIFT 00000001

Symbol: PIT_MCR_MDIS_SHIFT
   Definitions
      At line 1676 in file MKL05Z4.s
   Uses
      None
Comment: PIT_MCR_MDIS_SHIFT unused
PIT_MCR_OFFSET 00000000

Symbol: PIT_MCR_OFFSET
   Definitions
      At line 1627 in file MKL05Z4.s
   Uses
      At line 1638 in file MKL05Z4.s
      At line 1236 in file Ex_12.s

PIT_PRI_POS 00000016

Symbol: PIT_PRI_POS
   Definitions
      At line 1496 in file MKL05Z4.s
   Uses
      At line 84 in file Ex_12.s
      At line 85 in file Ex_12.s

PIT_TCTRL0 40037108

Symbol: PIT_TCTRL0
   Definitions
      At line 1643 in file MKL05Z4.s
   Uses
      None
Comment: PIT_TCTRL0 unused
PIT_TCTRL0_OFFSET 00000108




ARM Macro Assembler    Page 105 Alphabetic symbol ordering
Absolute symbols

Symbol: PIT_TCTRL0_OFFSET
   Definitions
      At line 1632 in file MKL05Z4.s
   Uses
      At line 1643 in file MKL05Z4.s
Comment: PIT_TCTRL0_OFFSET used once
PIT_TCTRL1 40037118

Symbol: PIT_TCTRL1
   Definitions
      At line 1647 in file MKL05Z4.s
   Uses
      None
Comment: PIT_TCTRL1 unused
PIT_TCTRL1_OFFSET 00000118

Symbol: PIT_TCTRL1_OFFSET
   Definitions
      At line 1636 in file MKL05Z4.s
   Uses
      At line 1647 in file MKL05Z4.s
Comment: PIT_TCTRL1_OFFSET used once
PIT_TCTRL_CHN_MASK 00000004

Symbol: PIT_TCTRL_CHN_MASK
   Definitions
      At line 1688 in file MKL05Z4.s
   Uses
      None
Comment: PIT_TCTRL_CHN_MASK unused
PIT_TCTRL_CHN_SHIFT 00000002

Symbol: PIT_TCTRL_CHN_SHIFT
   Definitions
      At line 1689 in file MKL05Z4.s
   Uses
      None
Comment: PIT_TCTRL_CHN_SHIFT unused
PIT_TCTRL_CH_IE 00000003

Symbol: PIT_TCTRL_CH_IE
   Definitions
      At line 121 in file Ex_12.s
   Uses
      At line 1242 in file Ex_12.s
Comment: PIT_TCTRL_CH_IE used once
PIT_TCTRL_OFFSET 00000008

Symbol: PIT_TCTRL_OFFSET
   Definitions
      At line 1625 in file MKL05Z4.s
   Uses
      At line 1207 in file Ex_12.s
      At line 1209 in file Ex_12.s
      At line 1243 in file Ex_12.s

PIT_TCTRL_TEN_MASK 00000001

Symbol: PIT_TCTRL_TEN_MASK



ARM Macro Assembler    Page 106 Alphabetic symbol ordering
Absolute symbols

   Definitions
      At line 1692 in file MKL05Z4.s
   Uses
      At line 121 in file Ex_12.s
      At line 1206 in file Ex_12.s

PIT_TCTRL_TEN_SHIFT 00000000

Symbol: PIT_TCTRL_TEN_SHIFT
   Definitions
      At line 1693 in file MKL05Z4.s
   Uses
      None
Comment: PIT_TCTRL_TEN_SHIFT unused
PIT_TCTRL_TIE_MASK 00000002

Symbol: PIT_TCTRL_TIE_MASK
   Definitions
      At line 1690 in file MKL05Z4.s
   Uses
      At line 121 in file Ex_12.s
Comment: PIT_TCTRL_TIE_MASK used once
PIT_TCTRL_TIE_SHIFT 00000001

Symbol: PIT_TCTRL_TIE_SHIFT
   Definitions
      At line 1691 in file MKL05Z4.s
   Uses
      None
Comment: PIT_TCTRL_TIE_SHIFT unused
PIT_TFLG0 4003710C

Symbol: PIT_TFLG0
   Definitions
      At line 1644 in file MKL05Z4.s
   Uses
      None
Comment: PIT_TFLG0 unused
PIT_TFLG0_OFFSET 0000010C

Symbol: PIT_TFLG0_OFFSET
   Definitions
      At line 1633 in file MKL05Z4.s
   Uses
      At line 1644 in file MKL05Z4.s
Comment: PIT_TFLG0_OFFSET used once
PIT_TFLG1 4003711C

Symbol: PIT_TFLG1
   Definitions
      At line 1648 in file MKL05Z4.s
   Uses
      None
Comment: PIT_TFLG1 unused
PIT_TFLG1_OFFSET 0000011C

Symbol: PIT_TFLG1_OFFSET
   Definitions
      At line 1637 in file MKL05Z4.s



ARM Macro Assembler    Page 107 Alphabetic symbol ordering
Absolute symbols

   Uses
      At line 1648 in file MKL05Z4.s
Comment: PIT_TFLG1_OFFSET used once
PIT_TFLG_OFFSET 0000000C

Symbol: PIT_TFLG_OFFSET
   Definitions
      At line 1626 in file MKL05Z4.s
   Uses
      At line 1152 in file Ex_12.s
Comment: PIT_TFLG_OFFSET used once
PIT_TFLG_TIF_MASK 00000001

Symbol: PIT_TFLG_TIF_MASK
   Definitions
      At line 1699 in file MKL05Z4.s
   Uses
      At line 1151 in file Ex_12.s
Comment: PIT_TFLG_TIF_MASK used once
PIT_TFLG_TIF_SHIFT 00000000

Symbol: PIT_TFLG_TIF_SHIFT
   Definitions
      At line 1700 in file MKL05Z4.s
   Uses
      None
Comment: PIT_TFLG_TIF_SHIFT unused
PIT_Vector 00000026

Symbol: PIT_Vector
   Definitions
      At line 1581 in file MKL05Z4.s
   Uses
      None
Comment: PIT_Vector unused
PORTA_BASE 40049000

Symbol: PORTA_BASE
   Definitions
      At line 1703 in file MKL05Z4.s
   Uses
      At line 1739 in file MKL05Z4.s
      At line 1740 in file MKL05Z4.s
      At line 1741 in file MKL05Z4.s
      At line 1742 in file MKL05Z4.s
      At line 1743 in file MKL05Z4.s
      At line 1744 in file MKL05Z4.s
      At line 1745 in file MKL05Z4.s
      At line 1746 in file MKL05Z4.s
      At line 1747 in file MKL05Z4.s
      At line 1748 in file MKL05Z4.s
      At line 1749 in file MKL05Z4.s
      At line 1750 in file MKL05Z4.s
      At line 1751 in file MKL05Z4.s
      At line 1752 in file MKL05Z4.s
      At line 1753 in file MKL05Z4.s
      At line 1754 in file MKL05Z4.s
      At line 1755 in file MKL05Z4.s
      At line 1756 in file MKL05Z4.s



ARM Macro Assembler    Page 108 Alphabetic symbol ordering
Absolute symbols

      At line 1757 in file MKL05Z4.s
      At line 1758 in file MKL05Z4.s
      At line 1759 in file MKL05Z4.s
      At line 1760 in file MKL05Z4.s
      At line 1761 in file MKL05Z4.s
      At line 1762 in file MKL05Z4.s
      At line 1763 in file MKL05Z4.s
      At line 1764 in file MKL05Z4.s
      At line 1765 in file MKL05Z4.s
      At line 1766 in file MKL05Z4.s
      At line 1767 in file MKL05Z4.s
      At line 1768 in file MKL05Z4.s
      At line 1769 in file MKL05Z4.s
      At line 1770 in file MKL05Z4.s
      At line 1771 in file MKL05Z4.s
      At line 1772 in file MKL05Z4.s
      At line 1773 in file MKL05Z4.s

PORTA_GPCHR 40049084

Symbol: PORTA_GPCHR
   Definitions
      At line 1772 in file MKL05Z4.s
   Uses
      None
Comment: PORTA_GPCHR unused
PORTA_GPCHR_OFFSET 00000084

Symbol: PORTA_GPCHR_OFFSET
   Definitions
      At line 1737 in file MKL05Z4.s
   Uses
      At line 1772 in file MKL05Z4.s
Comment: PORTA_GPCHR_OFFSET used once
PORTA_GPCLR 40049080

Symbol: PORTA_GPCLR
   Definitions
      At line 1771 in file MKL05Z4.s
   Uses
      None
Comment: PORTA_GPCLR unused
PORTA_GPCLR_OFFSET 00000080

Symbol: PORTA_GPCLR_OFFSET
   Definitions
      At line 1736 in file MKL05Z4.s
   Uses
      At line 1771 in file MKL05Z4.s
Comment: PORTA_GPCLR_OFFSET used once
PORTA_IPR E000E41C

Symbol: PORTA_IPR
   Definitions
      At line 1468 in file MKL05Z4.s
   Uses
      None
Comment: PORTA_IPR unused
PORTA_IRQ_MASK 40000000



ARM Macro Assembler    Page 109 Alphabetic symbol ordering
Absolute symbols


Symbol: PORTA_IRQ_MASK
   Definitions
      At line 1538 in file MKL05Z4.s
   Uses
      None
Comment: PORTA_IRQ_MASK unused
PORTA_IRQn 0000001E

Symbol: PORTA_IRQn
   Definitions
      At line 187 in file MKL05Z4.s
   Uses
      At line 1538 in file MKL05Z4.s
Comment: PORTA_IRQn used once
PORTA_ISFR 400490A0

Symbol: PORTA_ISFR
   Definitions
      At line 1773 in file MKL05Z4.s
   Uses
      None
Comment: PORTA_ISFR unused
PORTA_ISFR_OFFSET 000000A0

Symbol: PORTA_ISFR_OFFSET
   Definitions
      At line 1738 in file MKL05Z4.s
   Uses
      At line 1773 in file MKL05Z4.s
Comment: PORTA_ISFR_OFFSET used once
PORTA_PCR0 40049000

Symbol: PORTA_PCR0
   Definitions
      At line 1739 in file MKL05Z4.s
   Uses
      None
Comment: PORTA_PCR0 unused
PORTA_PCR0_OFFSET 00000000

Symbol: PORTA_PCR0_OFFSET
   Definitions
      At line 1704 in file MKL05Z4.s
   Uses
      At line 1739 in file MKL05Z4.s
Comment: PORTA_PCR0_OFFSET used once
PORTA_PCR1 40049004

Symbol: PORTA_PCR1
   Definitions
      At line 1740 in file MKL05Z4.s
   Uses
      None
Comment: PORTA_PCR1 unused
PORTA_PCR10 40049028

Symbol: PORTA_PCR10
   Definitions



ARM Macro Assembler    Page 110 Alphabetic symbol ordering
Absolute symbols

      At line 1749 in file MKL05Z4.s
   Uses
      None
Comment: PORTA_PCR10 unused
PORTA_PCR10_OFFSET 00000028

Symbol: PORTA_PCR10_OFFSET
   Definitions
      At line 1714 in file MKL05Z4.s
   Uses
      At line 1749 in file MKL05Z4.s
Comment: PORTA_PCR10_OFFSET used once
PORTA_PCR11 4004902C

Symbol: PORTA_PCR11
   Definitions
      At line 1750 in file MKL05Z4.s
   Uses
      None
Comment: PORTA_PCR11 unused
PORTA_PCR11_OFFSET 0000002C

Symbol: PORTA_PCR11_OFFSET
   Definitions
      At line 1715 in file MKL05Z4.s
   Uses
      At line 1750 in file MKL05Z4.s
Comment: PORTA_PCR11_OFFSET used once
PORTA_PCR12 40049030

Symbol: PORTA_PCR12
   Definitions
      At line 1751 in file MKL05Z4.s
   Uses
      None
Comment: PORTA_PCR12 unused
PORTA_PCR12_OFFSET 00000030

Symbol: PORTA_PCR12_OFFSET
   Definitions
      At line 1716 in file MKL05Z4.s
   Uses
      At line 1751 in file MKL05Z4.s
Comment: PORTA_PCR12_OFFSET used once
PORTA_PCR13 40049034

Symbol: PORTA_PCR13
   Definitions
      At line 1752 in file MKL05Z4.s
   Uses
      None
Comment: PORTA_PCR13 unused
PORTA_PCR13_OFFSET 00000034

Symbol: PORTA_PCR13_OFFSET
   Definitions
      At line 1717 in file MKL05Z4.s
   Uses
      At line 1752 in file MKL05Z4.s



ARM Macro Assembler    Page 111 Alphabetic symbol ordering
Absolute symbols

Comment: PORTA_PCR13_OFFSET used once
PORTA_PCR14 40049038

Symbol: PORTA_PCR14
   Definitions
      At line 1753 in file MKL05Z4.s
   Uses
      None
Comment: PORTA_PCR14 unused
PORTA_PCR14_OFFSET 00000038

Symbol: PORTA_PCR14_OFFSET
   Definitions
      At line 1718 in file MKL05Z4.s
   Uses
      At line 1753 in file MKL05Z4.s
Comment: PORTA_PCR14_OFFSET used once
PORTA_PCR15 4004903C

Symbol: PORTA_PCR15
   Definitions
      At line 1754 in file MKL05Z4.s
   Uses
      None
Comment: PORTA_PCR15 unused
PORTA_PCR15_OFFSET 0000003C

Symbol: PORTA_PCR15_OFFSET
   Definitions
      At line 1719 in file MKL05Z4.s
   Uses
      At line 1754 in file MKL05Z4.s
Comment: PORTA_PCR15_OFFSET used once
PORTA_PCR16 40049040

Symbol: PORTA_PCR16
   Definitions
      At line 1755 in file MKL05Z4.s
   Uses
      None
Comment: PORTA_PCR16 unused
PORTA_PCR16_OFFSET 00000040

Symbol: PORTA_PCR16_OFFSET
   Definitions
      At line 1720 in file MKL05Z4.s
   Uses
      At line 1755 in file MKL05Z4.s
Comment: PORTA_PCR16_OFFSET used once
PORTA_PCR17 40049044

Symbol: PORTA_PCR17
   Definitions
      At line 1756 in file MKL05Z4.s
   Uses
      None
Comment: PORTA_PCR17 unused
PORTA_PCR17_OFFSET 00000044




ARM Macro Assembler    Page 112 Alphabetic symbol ordering
Absolute symbols

Symbol: PORTA_PCR17_OFFSET
   Definitions
      At line 1721 in file MKL05Z4.s
   Uses
      At line 1756 in file MKL05Z4.s
Comment: PORTA_PCR17_OFFSET used once
PORTA_PCR18 40049048

Symbol: PORTA_PCR18
   Definitions
      At line 1757 in file MKL05Z4.s
   Uses
      None
Comment: PORTA_PCR18 unused
PORTA_PCR18_OFFSET 00000048

Symbol: PORTA_PCR18_OFFSET
   Definitions
      At line 1722 in file MKL05Z4.s
   Uses
      At line 1757 in file MKL05Z4.s
Comment: PORTA_PCR18_OFFSET used once
PORTA_PCR19 4004904C

Symbol: PORTA_PCR19
   Definitions
      At line 1758 in file MKL05Z4.s
   Uses
      None
Comment: PORTA_PCR19 unused
PORTA_PCR19_OFFSET 0000004C

Symbol: PORTA_PCR19_OFFSET
   Definitions
      At line 1723 in file MKL05Z4.s
   Uses
      At line 1758 in file MKL05Z4.s
Comment: PORTA_PCR19_OFFSET used once
PORTA_PCR1_OFFSET 00000004

Symbol: PORTA_PCR1_OFFSET
   Definitions
      At line 1705 in file MKL05Z4.s
   Uses
      At line 1740 in file MKL05Z4.s
Comment: PORTA_PCR1_OFFSET used once
PORTA_PCR2 40049008

Symbol: PORTA_PCR2
   Definitions
      At line 1741 in file MKL05Z4.s
   Uses
      None
Comment: PORTA_PCR2 unused
PORTA_PCR20 40049050

Symbol: PORTA_PCR20
   Definitions
      At line 1759 in file MKL05Z4.s



ARM Macro Assembler    Page 113 Alphabetic symbol ordering
Absolute symbols

   Uses
      None
Comment: PORTA_PCR20 unused
PORTA_PCR20_OFFSET 00000050

Symbol: PORTA_PCR20_OFFSET
   Definitions
      At line 1724 in file MKL05Z4.s
   Uses
      At line 1759 in file MKL05Z4.s
Comment: PORTA_PCR20_OFFSET used once
PORTA_PCR21 40049054

Symbol: PORTA_PCR21
   Definitions
      At line 1760 in file MKL05Z4.s
   Uses
      None
Comment: PORTA_PCR21 unused
PORTA_PCR21_OFFSET 00000054

Symbol: PORTA_PCR21_OFFSET
   Definitions
      At line 1725 in file MKL05Z4.s
   Uses
      At line 1760 in file MKL05Z4.s
Comment: PORTA_PCR21_OFFSET used once
PORTA_PCR22 40049058

Symbol: PORTA_PCR22
   Definitions
      At line 1761 in file MKL05Z4.s
   Uses
      None
Comment: PORTA_PCR22 unused
PORTA_PCR22_OFFSET 00000058

Symbol: PORTA_PCR22_OFFSET
   Definitions
      At line 1726 in file MKL05Z4.s
   Uses
      At line 1761 in file MKL05Z4.s
Comment: PORTA_PCR22_OFFSET used once
PORTA_PCR23 4004905C

Symbol: PORTA_PCR23
   Definitions
      At line 1762 in file MKL05Z4.s
   Uses
      None
Comment: PORTA_PCR23 unused
PORTA_PCR23_OFFSET 0000005C

Symbol: PORTA_PCR23_OFFSET
   Definitions
      At line 1727 in file MKL05Z4.s
   Uses
      At line 1762 in file MKL05Z4.s
Comment: PORTA_PCR23_OFFSET used once



ARM Macro Assembler    Page 114 Alphabetic symbol ordering
Absolute symbols

PORTA_PCR24 40049060

Symbol: PORTA_PCR24
   Definitions
      At line 1763 in file MKL05Z4.s
   Uses
      None
Comment: PORTA_PCR24 unused
PORTA_PCR24_OFFSET 00000060

Symbol: PORTA_PCR24_OFFSET
   Definitions
      At line 1728 in file MKL05Z4.s
   Uses
      At line 1763 in file MKL05Z4.s
Comment: PORTA_PCR24_OFFSET used once
PORTA_PCR25 40049064

Symbol: PORTA_PCR25
   Definitions
      At line 1764 in file MKL05Z4.s
   Uses
      None
Comment: PORTA_PCR25 unused
PORTA_PCR25_OFFSET 00000064

Symbol: PORTA_PCR25_OFFSET
   Definitions
      At line 1729 in file MKL05Z4.s
   Uses
      At line 1764 in file MKL05Z4.s
Comment: PORTA_PCR25_OFFSET used once
PORTA_PCR26 40049068

Symbol: PORTA_PCR26
   Definitions
      At line 1765 in file MKL05Z4.s
   Uses
      None
Comment: PORTA_PCR26 unused
PORTA_PCR26_OFFSET 00000068

Symbol: PORTA_PCR26_OFFSET
   Definitions
      At line 1730 in file MKL05Z4.s
   Uses
      At line 1765 in file MKL05Z4.s
Comment: PORTA_PCR26_OFFSET used once
PORTA_PCR27 4004906C

Symbol: PORTA_PCR27
   Definitions
      At line 1766 in file MKL05Z4.s
   Uses
      None
Comment: PORTA_PCR27 unused
PORTA_PCR27_OFFSET 0000006C

Symbol: PORTA_PCR27_OFFSET



ARM Macro Assembler    Page 115 Alphabetic symbol ordering
Absolute symbols

   Definitions
      At line 1731 in file MKL05Z4.s
   Uses
      At line 1766 in file MKL05Z4.s
Comment: PORTA_PCR27_OFFSET used once
PORTA_PCR28 40049070

Symbol: PORTA_PCR28
   Definitions
      At line 1767 in file MKL05Z4.s
   Uses
      None
Comment: PORTA_PCR28 unused
PORTA_PCR28_OFFSET 00000070

Symbol: PORTA_PCR28_OFFSET
   Definitions
      At line 1732 in file MKL05Z4.s
   Uses
      At line 1767 in file MKL05Z4.s
Comment: PORTA_PCR28_OFFSET used once
PORTA_PCR29 40049074

Symbol: PORTA_PCR29
   Definitions
      At line 1768 in file MKL05Z4.s
   Uses
      None
Comment: PORTA_PCR29 unused
PORTA_PCR29_OFFSET 00000074

Symbol: PORTA_PCR29_OFFSET
   Definitions
      At line 1733 in file MKL05Z4.s
   Uses
      At line 1768 in file MKL05Z4.s
Comment: PORTA_PCR29_OFFSET used once
PORTA_PCR2_OFFSET 00000008

Symbol: PORTA_PCR2_OFFSET
   Definitions
      At line 1706 in file MKL05Z4.s
   Uses
      At line 1741 in file MKL05Z4.s
Comment: PORTA_PCR2_OFFSET used once
PORTA_PCR3 4004900C

Symbol: PORTA_PCR3
   Definitions
      At line 1742 in file MKL05Z4.s
   Uses
      None
Comment: PORTA_PCR3 unused
PORTA_PCR30 40049078

Symbol: PORTA_PCR30
   Definitions
      At line 1769 in file MKL05Z4.s
   Uses



ARM Macro Assembler    Page 116 Alphabetic symbol ordering
Absolute symbols

      None
Comment: PORTA_PCR30 unused
PORTA_PCR30_OFFSET 00000078

Symbol: PORTA_PCR30_OFFSET
   Definitions
      At line 1734 in file MKL05Z4.s
   Uses
      At line 1769 in file MKL05Z4.s
Comment: PORTA_PCR30_OFFSET used once
PORTA_PCR31 4004907C

Symbol: PORTA_PCR31
   Definitions
      At line 1770 in file MKL05Z4.s
   Uses
      None
Comment: PORTA_PCR31 unused
PORTA_PCR31_OFFSET 0000007C

Symbol: PORTA_PCR31_OFFSET
   Definitions
      At line 1735 in file MKL05Z4.s
   Uses
      At line 1770 in file MKL05Z4.s
Comment: PORTA_PCR31_OFFSET used once
PORTA_PCR3_OFFSET 0000000C

Symbol: PORTA_PCR3_OFFSET
   Definitions
      At line 1707 in file MKL05Z4.s
   Uses
      At line 1742 in file MKL05Z4.s
Comment: PORTA_PCR3_OFFSET used once
PORTA_PCR4 40049010

Symbol: PORTA_PCR4
   Definitions
      At line 1743 in file MKL05Z4.s
   Uses
      None
Comment: PORTA_PCR4 unused
PORTA_PCR4_OFFSET 00000010

Symbol: PORTA_PCR4_OFFSET
   Definitions
      At line 1708 in file MKL05Z4.s
   Uses
      At line 1743 in file MKL05Z4.s
Comment: PORTA_PCR4_OFFSET used once
PORTA_PCR5 40049014

Symbol: PORTA_PCR5
   Definitions
      At line 1744 in file MKL05Z4.s
   Uses
      None
Comment: PORTA_PCR5 unused
PORTA_PCR5_OFFSET 00000014



ARM Macro Assembler    Page 117 Alphabetic symbol ordering
Absolute symbols


Symbol: PORTA_PCR5_OFFSET
   Definitions
      At line 1709 in file MKL05Z4.s
   Uses
      At line 1744 in file MKL05Z4.s
Comment: PORTA_PCR5_OFFSET used once
PORTA_PCR6 40049018

Symbol: PORTA_PCR6
   Definitions
      At line 1745 in file MKL05Z4.s
   Uses
      None
Comment: PORTA_PCR6 unused
PORTA_PCR6_OFFSET 00000018

Symbol: PORTA_PCR6_OFFSET
   Definitions
      At line 1710 in file MKL05Z4.s
   Uses
      At line 1745 in file MKL05Z4.s
Comment: PORTA_PCR6_OFFSET used once
PORTA_PCR7 4004901C

Symbol: PORTA_PCR7
   Definitions
      At line 1746 in file MKL05Z4.s
   Uses
      None
Comment: PORTA_PCR7 unused
PORTA_PCR7_OFFSET 0000001C

Symbol: PORTA_PCR7_OFFSET
   Definitions
      At line 1711 in file MKL05Z4.s
   Uses
      At line 1746 in file MKL05Z4.s
Comment: PORTA_PCR7_OFFSET used once
PORTA_PCR8 40049020

Symbol: PORTA_PCR8
   Definitions
      At line 1747 in file MKL05Z4.s
   Uses
      None
Comment: PORTA_PCR8 unused
PORTA_PCR8_OFFSET 00000020

Symbol: PORTA_PCR8_OFFSET
   Definitions
      At line 1712 in file MKL05Z4.s
   Uses
      At line 1747 in file MKL05Z4.s
Comment: PORTA_PCR8_OFFSET used once
PORTA_PCR9 40049024

Symbol: PORTA_PCR9
   Definitions



ARM Macro Assembler    Page 118 Alphabetic symbol ordering
Absolute symbols

      At line 1748 in file MKL05Z4.s
   Uses
      None
Comment: PORTA_PCR9 unused
PORTA_PCR9_OFFSET 00000024

Symbol: PORTA_PCR9_OFFSET
   Definitions
      At line 1713 in file MKL05Z4.s
   Uses
      At line 1748 in file MKL05Z4.s
Comment: PORTA_PCR9_OFFSET used once
PORTA_PRI_POS 00000016

Symbol: PORTA_PRI_POS
   Definitions
      At line 1504 in file MKL05Z4.s
   Uses
      None
Comment: PORTA_PRI_POS unused
PORTA_Vector 0000002E

Symbol: PORTA_Vector
   Definitions
      At line 1589 in file MKL05Z4.s
   Uses
      None
Comment: PORTA_Vector unused
PORTB_BASE 4004A000

Symbol: PORTB_BASE
   Definitions
      At line 1776 in file MKL05Z4.s
   Uses
      At line 1812 in file MKL05Z4.s
      At line 1813 in file MKL05Z4.s
      At line 1814 in file MKL05Z4.s
      At line 1815 in file MKL05Z4.s
      At line 1816 in file MKL05Z4.s
      At line 1817 in file MKL05Z4.s
      At line 1818 in file MKL05Z4.s
      At line 1819 in file MKL05Z4.s
      At line 1820 in file MKL05Z4.s
      At line 1821 in file MKL05Z4.s
      At line 1822 in file MKL05Z4.s
      At line 1823 in file MKL05Z4.s
      At line 1824 in file MKL05Z4.s
      At line 1825 in file MKL05Z4.s
      At line 1826 in file MKL05Z4.s
      At line 1827 in file MKL05Z4.s
      At line 1828 in file MKL05Z4.s
      At line 1829 in file MKL05Z4.s
      At line 1830 in file MKL05Z4.s
      At line 1831 in file MKL05Z4.s
      At line 1832 in file MKL05Z4.s
      At line 1833 in file MKL05Z4.s
      At line 1834 in file MKL05Z4.s
      At line 1835 in file MKL05Z4.s
      At line 1836 in file MKL05Z4.s



ARM Macro Assembler    Page 119 Alphabetic symbol ordering
Absolute symbols

      At line 1837 in file MKL05Z4.s
      At line 1838 in file MKL05Z4.s
      At line 1839 in file MKL05Z4.s
      At line 1840 in file MKL05Z4.s
      At line 1841 in file MKL05Z4.s
      At line 1842 in file MKL05Z4.s
      At line 1843 in file MKL05Z4.s
      At line 1844 in file MKL05Z4.s
      At line 1845 in file MKL05Z4.s
      At line 1846 in file MKL05Z4.s
      At line 630 in file Ex_12.s

PORTB_GPCHR 4004A084

Symbol: PORTB_GPCHR
   Definitions
      At line 1845 in file MKL05Z4.s
   Uses
      None
Comment: PORTB_GPCHR unused
PORTB_GPCHR_OFFSET 00000084

Symbol: PORTB_GPCHR_OFFSET
   Definitions
      At line 1810 in file MKL05Z4.s
   Uses
      At line 1845 in file MKL05Z4.s
Comment: PORTB_GPCHR_OFFSET used once
PORTB_GPCLR 4004A080

Symbol: PORTB_GPCLR
   Definitions
      At line 1844 in file MKL05Z4.s
   Uses
      None
Comment: PORTB_GPCLR unused
PORTB_GPCLR_OFFSET 00000080

Symbol: PORTB_GPCLR_OFFSET
   Definitions
      At line 1809 in file MKL05Z4.s
   Uses
      At line 1844 in file MKL05Z4.s
Comment: PORTB_GPCLR_OFFSET used once
PORTB_IPR E000E41C

Symbol: PORTB_IPR
   Definitions
      At line 1469 in file MKL05Z4.s
   Uses
      None
Comment: PORTB_IPR unused
PORTB_IRQ_MASK 80000000

Symbol: PORTB_IRQ_MASK
   Definitions
      At line 1539 in file MKL05Z4.s
   Uses
      None



ARM Macro Assembler    Page 120 Alphabetic symbol ordering
Absolute symbols

Comment: PORTB_IRQ_MASK unused
PORTB_IRQn 0000001F

Symbol: PORTB_IRQn
   Definitions
      At line 188 in file MKL05Z4.s
   Uses
      At line 1539 in file MKL05Z4.s
Comment: PORTB_IRQn used once
PORTB_ISFR 4004A0A0

Symbol: PORTB_ISFR
   Definitions
      At line 1846 in file MKL05Z4.s
   Uses
      None
Comment: PORTB_ISFR unused
PORTB_ISFR_OFFSET 000000A0

Symbol: PORTB_ISFR_OFFSET
   Definitions
      At line 1811 in file MKL05Z4.s
   Uses
      At line 1846 in file MKL05Z4.s
Comment: PORTB_ISFR_OFFSET used once
PORTB_LEDS_MASK 00000700

Symbol: PORTB_LEDS_MASK
   Definitions
      At line 275 in file Ex_12.s
   Uses
      At line 642 in file Ex_12.s
      At line 787 in file Ex_12.s
      At line 814 in file Ex_12.s
      At line 873 in file Ex_12.s
      At line 902 in file Ex_12.s
      At line 954 in file Ex_12.s
      At line 984 in file Ex_12.s

PORTB_LED_BLUE_MASK 00000400

Symbol: PORTB_LED_BLUE_MASK
   Definitions
      At line 271 in file Ex_12.s
   Uses
      At line 275 in file Ex_12.s
      At line 660 in file Ex_12.s
      At line 696 in file Ex_12.s

PORTB_LED_GREEN_MASK 00000200

Symbol: PORTB_LED_GREEN_MASK
   Definitions
      At line 270 in file Ex_12.s
   Uses
      At line 275 in file Ex_12.s
      At line 657 in file Ex_12.s
      At line 684 in file Ex_12.s
      At line 708 in file Ex_12.s



ARM Macro Assembler    Page 121 Alphabetic symbol ordering
Absolute symbols

      At line 815 in file Ex_12.s
      At line 903 in file Ex_12.s
      At line 985 in file Ex_12.s

PORTB_LED_RED_MASK 00000100

Symbol: PORTB_LED_RED_MASK
   Definitions
      At line 269 in file Ex_12.s
   Uses
      At line 275 in file Ex_12.s
      At line 654 in file Ex_12.s
      At line 672 in file Ex_12.s
      At line 720 in file Ex_12.s
      At line 788 in file Ex_12.s
      At line 874 in file Ex_12.s
      At line 955 in file Ex_12.s

PORTB_PCR0 4004A000

Symbol: PORTB_PCR0
   Definitions
      At line 1812 in file MKL05Z4.s
   Uses
      None
Comment: PORTB_PCR0 unused
PORTB_PCR0_OFFSET 00000000

Symbol: PORTB_PCR0_OFFSET
   Definitions
      At line 1777 in file MKL05Z4.s
   Uses
      At line 1812 in file MKL05Z4.s
Comment: PORTB_PCR0_OFFSET used once
PORTB_PCR1 4004A004

Symbol: PORTB_PCR1
   Definitions
      At line 1813 in file MKL05Z4.s
   Uses
      At line 1300 in file Ex_12.s
Comment: PORTB_PCR1 used once
PORTB_PCR10 4004A028

Symbol: PORTB_PCR10
   Definitions
      At line 1822 in file MKL05Z4.s
   Uses
      None
Comment: PORTB_PCR10 unused
PORTB_PCR10_OFFSET 00000028

Symbol: PORTB_PCR10_OFFSET
   Definitions
      At line 1787 in file MKL05Z4.s
   Uses
      At line 1822 in file MKL05Z4.s
      At line 639 in file Ex_12.s




ARM Macro Assembler    Page 122 Alphabetic symbol ordering
Absolute symbols

PORTB_PCR11 4004A02C

Symbol: PORTB_PCR11
   Definitions
      At line 1823 in file MKL05Z4.s
   Uses
      None
Comment: PORTB_PCR11 unused
PORTB_PCR11_OFFSET 0000002C

Symbol: PORTB_PCR11_OFFSET
   Definitions
      At line 1788 in file MKL05Z4.s
   Uses
      At line 1823 in file MKL05Z4.s
Comment: PORTB_PCR11_OFFSET used once
PORTB_PCR12 4004A030

Symbol: PORTB_PCR12
   Definitions
      At line 1824 in file MKL05Z4.s
   Uses
      None
Comment: PORTB_PCR12 unused
PORTB_PCR12_OFFSET 00000030

Symbol: PORTB_PCR12_OFFSET
   Definitions
      At line 1789 in file MKL05Z4.s
   Uses
      At line 1824 in file MKL05Z4.s
Comment: PORTB_PCR12_OFFSET used once
PORTB_PCR13 4004A034

Symbol: PORTB_PCR13
   Definitions
      At line 1825 in file MKL05Z4.s
   Uses
      None
Comment: PORTB_PCR13 unused
PORTB_PCR13_OFFSET 00000034

Symbol: PORTB_PCR13_OFFSET
   Definitions
      At line 1790 in file MKL05Z4.s
   Uses
      At line 1825 in file MKL05Z4.s
Comment: PORTB_PCR13_OFFSET used once
PORTB_PCR14 4004A038

Symbol: PORTB_PCR14
   Definitions
      At line 1826 in file MKL05Z4.s
   Uses
      None
Comment: PORTB_PCR14 unused
PORTB_PCR14_OFFSET 00000038

Symbol: PORTB_PCR14_OFFSET



ARM Macro Assembler    Page 123 Alphabetic symbol ordering
Absolute symbols

   Definitions
      At line 1791 in file MKL05Z4.s
   Uses
      At line 1826 in file MKL05Z4.s
Comment: PORTB_PCR14_OFFSET used once
PORTB_PCR15 4004A03C

Symbol: PORTB_PCR15
   Definitions
      At line 1827 in file MKL05Z4.s
   Uses
      None
Comment: PORTB_PCR15 unused
PORTB_PCR15_OFFSET 0000003C

Symbol: PORTB_PCR15_OFFSET
   Definitions
      At line 1792 in file MKL05Z4.s
   Uses
      At line 1827 in file MKL05Z4.s
Comment: PORTB_PCR15_OFFSET used once
PORTB_PCR16 4004A040

Symbol: PORTB_PCR16
   Definitions
      At line 1828 in file MKL05Z4.s
   Uses
      None
Comment: PORTB_PCR16 unused
PORTB_PCR16_OFFSET 00000040

Symbol: PORTB_PCR16_OFFSET
   Definitions
      At line 1793 in file MKL05Z4.s
   Uses
      At line 1828 in file MKL05Z4.s
Comment: PORTB_PCR16_OFFSET used once
PORTB_PCR17 4004A044

Symbol: PORTB_PCR17
   Definitions
      At line 1829 in file MKL05Z4.s
   Uses
      None
Comment: PORTB_PCR17 unused
PORTB_PCR17_OFFSET 00000044

Symbol: PORTB_PCR17_OFFSET
   Definitions
      At line 1794 in file MKL05Z4.s
   Uses
      At line 1829 in file MKL05Z4.s
Comment: PORTB_PCR17_OFFSET used once
PORTB_PCR18 4004A048

Symbol: PORTB_PCR18
   Definitions
      At line 1830 in file MKL05Z4.s
   Uses



ARM Macro Assembler    Page 124 Alphabetic symbol ordering
Absolute symbols

      None
Comment: PORTB_PCR18 unused
PORTB_PCR18_OFFSET 00000048

Symbol: PORTB_PCR18_OFFSET
   Definitions
      At line 1795 in file MKL05Z4.s
   Uses
      At line 1830 in file MKL05Z4.s
Comment: PORTB_PCR18_OFFSET used once
PORTB_PCR19 4004A04C

Symbol: PORTB_PCR19
   Definitions
      At line 1831 in file MKL05Z4.s
   Uses
      None
Comment: PORTB_PCR19 unused
PORTB_PCR19_OFFSET 0000004C

Symbol: PORTB_PCR19_OFFSET
   Definitions
      At line 1796 in file MKL05Z4.s
   Uses
      At line 1831 in file MKL05Z4.s
Comment: PORTB_PCR19_OFFSET used once
PORTB_PCR1_OFFSET 00000004

Symbol: PORTB_PCR1_OFFSET
   Definitions
      At line 1778 in file MKL05Z4.s
   Uses
      At line 1813 in file MKL05Z4.s
Comment: PORTB_PCR1_OFFSET used once
PORTB_PCR2 4004A008

Symbol: PORTB_PCR2
   Definitions
      At line 1814 in file MKL05Z4.s
   Uses
      At line 1295 in file Ex_12.s
Comment: PORTB_PCR2 used once
PORTB_PCR20 4004A050

Symbol: PORTB_PCR20
   Definitions
      At line 1832 in file MKL05Z4.s
   Uses
      None
Comment: PORTB_PCR20 unused
PORTB_PCR20_OFFSET 00000050

Symbol: PORTB_PCR20_OFFSET
   Definitions
      At line 1797 in file MKL05Z4.s
   Uses
      At line 1832 in file MKL05Z4.s
Comment: PORTB_PCR20_OFFSET used once
PORTB_PCR21 4004A054



ARM Macro Assembler    Page 125 Alphabetic symbol ordering
Absolute symbols


Symbol: PORTB_PCR21
   Definitions
      At line 1833 in file MKL05Z4.s
   Uses
      None
Comment: PORTB_PCR21 unused
PORTB_PCR21_OFFSET 00000054

Symbol: PORTB_PCR21_OFFSET
   Definitions
      At line 1798 in file MKL05Z4.s
   Uses
      At line 1833 in file MKL05Z4.s
Comment: PORTB_PCR21_OFFSET used once
PORTB_PCR22 4004A058

Symbol: PORTB_PCR22
   Definitions
      At line 1834 in file MKL05Z4.s
   Uses
      None
Comment: PORTB_PCR22 unused
PORTB_PCR22_OFFSET 00000058

Symbol: PORTB_PCR22_OFFSET
   Definitions
      At line 1799 in file MKL05Z4.s
   Uses
      At line 1834 in file MKL05Z4.s
Comment: PORTB_PCR22_OFFSET used once
PORTB_PCR23 4004A05C

Symbol: PORTB_PCR23
   Definitions
      At line 1835 in file MKL05Z4.s
   Uses
      None
Comment: PORTB_PCR23 unused
PORTB_PCR23_OFFSET 0000005C

Symbol: PORTB_PCR23_OFFSET
   Definitions
      At line 1800 in file MKL05Z4.s
   Uses
      At line 1835 in file MKL05Z4.s
Comment: PORTB_PCR23_OFFSET used once
PORTB_PCR24 4004A060

Symbol: PORTB_PCR24
   Definitions
      At line 1836 in file MKL05Z4.s
   Uses
      None
Comment: PORTB_PCR24 unused
PORTB_PCR24_OFFSET 00000060

Symbol: PORTB_PCR24_OFFSET
   Definitions



ARM Macro Assembler    Page 126 Alphabetic symbol ordering
Absolute symbols

      At line 1801 in file MKL05Z4.s
   Uses
      At line 1836 in file MKL05Z4.s
Comment: PORTB_PCR24_OFFSET used once
PORTB_PCR25 4004A064

Symbol: PORTB_PCR25
   Definitions
      At line 1837 in file MKL05Z4.s
   Uses
      None
Comment: PORTB_PCR25 unused
PORTB_PCR25_OFFSET 00000064

Symbol: PORTB_PCR25_OFFSET
   Definitions
      At line 1802 in file MKL05Z4.s
   Uses
      At line 1837 in file MKL05Z4.s
Comment: PORTB_PCR25_OFFSET used once
PORTB_PCR26 4004A068

Symbol: PORTB_PCR26
   Definitions
      At line 1838 in file MKL05Z4.s
   Uses
      None
Comment: PORTB_PCR26 unused
PORTB_PCR26_OFFSET 00000068

Symbol: PORTB_PCR26_OFFSET
   Definitions
      At line 1803 in file MKL05Z4.s
   Uses
      At line 1838 in file MKL05Z4.s
Comment: PORTB_PCR26_OFFSET used once
PORTB_PCR27 4004A06C

Symbol: PORTB_PCR27
   Definitions
      At line 1839 in file MKL05Z4.s
   Uses
      None
Comment: PORTB_PCR27 unused
PORTB_PCR27_OFFSET 0000006C

Symbol: PORTB_PCR27_OFFSET
   Definitions
      At line 1804 in file MKL05Z4.s
   Uses
      At line 1839 in file MKL05Z4.s
Comment: PORTB_PCR27_OFFSET used once
PORTB_PCR28 4004A070

Symbol: PORTB_PCR28
   Definitions
      At line 1840 in file MKL05Z4.s
   Uses
      None



ARM Macro Assembler    Page 127 Alphabetic symbol ordering
Absolute symbols

Comment: PORTB_PCR28 unused
PORTB_PCR28_OFFSET 00000070

Symbol: PORTB_PCR28_OFFSET
   Definitions
      At line 1805 in file MKL05Z4.s
   Uses
      At line 1840 in file MKL05Z4.s
Comment: PORTB_PCR28_OFFSET used once
PORTB_PCR29 4004A074

Symbol: PORTB_PCR29
   Definitions
      At line 1841 in file MKL05Z4.s
   Uses
      None
Comment: PORTB_PCR29 unused
PORTB_PCR29_OFFSET 00000074

Symbol: PORTB_PCR29_OFFSET
   Definitions
      At line 1806 in file MKL05Z4.s
   Uses
      At line 1841 in file MKL05Z4.s
Comment: PORTB_PCR29_OFFSET used once
PORTB_PCR2_OFFSET 00000008

Symbol: PORTB_PCR2_OFFSET
   Definitions
      At line 1779 in file MKL05Z4.s
   Uses
      At line 1814 in file MKL05Z4.s
Comment: PORTB_PCR2_OFFSET used once
PORTB_PCR3 4004A00C

Symbol: PORTB_PCR3
   Definitions
      At line 1815 in file MKL05Z4.s
   Uses
      None
Comment: PORTB_PCR3 unused
PORTB_PCR30 4004A078

Symbol: PORTB_PCR30
   Definitions
      At line 1842 in file MKL05Z4.s
   Uses
      None
Comment: PORTB_PCR30 unused
PORTB_PCR30_OFFSET 00000078

Symbol: PORTB_PCR30_OFFSET
   Definitions
      At line 1807 in file MKL05Z4.s
   Uses
      At line 1842 in file MKL05Z4.s
Comment: PORTB_PCR30_OFFSET used once
PORTB_PCR31 4004A07C




ARM Macro Assembler    Page 128 Alphabetic symbol ordering
Absolute symbols

Symbol: PORTB_PCR31
   Definitions
      At line 1843 in file MKL05Z4.s
   Uses
      None
Comment: PORTB_PCR31 unused
PORTB_PCR31_OFFSET 0000007C

Symbol: PORTB_PCR31_OFFSET
   Definitions
      At line 1808 in file MKL05Z4.s
   Uses
      At line 1843 in file MKL05Z4.s
Comment: PORTB_PCR31_OFFSET used once
PORTB_PCR3_OFFSET 0000000C

Symbol: PORTB_PCR3_OFFSET
   Definitions
      At line 1780 in file MKL05Z4.s
   Uses
      At line 1815 in file MKL05Z4.s
Comment: PORTB_PCR3_OFFSET used once
PORTB_PCR4 4004A010

Symbol: PORTB_PCR4
   Definitions
      At line 1816 in file MKL05Z4.s
   Uses
      None
Comment: PORTB_PCR4 unused
PORTB_PCR4_OFFSET 00000010

Symbol: PORTB_PCR4_OFFSET
   Definitions
      At line 1781 in file MKL05Z4.s
   Uses
      At line 1816 in file MKL05Z4.s
Comment: PORTB_PCR4_OFFSET used once
PORTB_PCR5 4004A014

Symbol: PORTB_PCR5
   Definitions
      At line 1817 in file MKL05Z4.s
   Uses
      None
Comment: PORTB_PCR5 unused
PORTB_PCR5_OFFSET 00000014

Symbol: PORTB_PCR5_OFFSET
   Definitions
      At line 1782 in file MKL05Z4.s
   Uses
      At line 1817 in file MKL05Z4.s
Comment: PORTB_PCR5_OFFSET used once
PORTB_PCR6 4004A018

Symbol: PORTB_PCR6
   Definitions
      At line 1818 in file MKL05Z4.s



ARM Macro Assembler    Page 129 Alphabetic symbol ordering
Absolute symbols

   Uses
      None
Comment: PORTB_PCR6 unused
PORTB_PCR6_OFFSET 00000018

Symbol: PORTB_PCR6_OFFSET
   Definitions
      At line 1783 in file MKL05Z4.s
   Uses
      At line 1818 in file MKL05Z4.s
Comment: PORTB_PCR6_OFFSET used once
PORTB_PCR7 4004A01C

Symbol: PORTB_PCR7
   Definitions
      At line 1819 in file MKL05Z4.s
   Uses
      None
Comment: PORTB_PCR7 unused
PORTB_PCR7_OFFSET 0000001C

Symbol: PORTB_PCR7_OFFSET
   Definitions
      At line 1784 in file MKL05Z4.s
   Uses
      At line 1819 in file MKL05Z4.s
Comment: PORTB_PCR7_OFFSET used once
PORTB_PCR8 4004A020

Symbol: PORTB_PCR8
   Definitions
      At line 1820 in file MKL05Z4.s
   Uses
      None
Comment: PORTB_PCR8 unused
PORTB_PCR8_OFFSET 00000020

Symbol: PORTB_PCR8_OFFSET
   Definitions
      At line 1785 in file MKL05Z4.s
   Uses
      At line 1820 in file MKL05Z4.s
      At line 633 in file Ex_12.s

PORTB_PCR9 4004A024

Symbol: PORTB_PCR9
   Definitions
      At line 1821 in file MKL05Z4.s
   Uses
      None
Comment: PORTB_PCR9 unused
PORTB_PCR9_OFFSET 00000024

Symbol: PORTB_PCR9_OFFSET
   Definitions
      At line 1786 in file MKL05Z4.s
   Uses
      At line 1821 in file MKL05Z4.s



ARM Macro Assembler    Page 130 Alphabetic symbol ordering
Absolute symbols

      At line 636 in file Ex_12.s

PORTB_PRI_POS 0000001E

Symbol: PORTB_PRI_POS
   Definitions
      At line 1505 in file MKL05Z4.s
   Uses
      None
Comment: PORTB_PRI_POS unused
PORTB_Vector 0000002F

Symbol: PORTB_Vector
   Definitions
      At line 1590 in file MKL05Z4.s
   Uses
      None
Comment: PORTB_Vector unused
PORT_GPCHR_GPWD_MASK 0000FFFF

Symbol: PORT_GPCHR_GPWD_MASK
   Definitions
      At line 1928 in file MKL05Z4.s
   Uses
      None
Comment: PORT_GPCHR_GPWD_MASK unused
PORT_GPCHR_GPWD_SHIFT 00000000

Symbol: PORT_GPCHR_GPWD_SHIFT
   Definitions
      At line 1929 in file MKL05Z4.s
   Uses
      None
Comment: PORT_GPCHR_GPWD_SHIFT unused
PORT_GPCHR_GPWE_MASK FFFF0000

Symbol: PORT_GPCHR_GPWE_MASK
   Definitions
      At line 1926 in file MKL05Z4.s
   Uses
      None
Comment: PORT_GPCHR_GPWE_MASK unused
PORT_GPCHR_GPWE_SHIFT 00000010

Symbol: PORT_GPCHR_GPWE_SHIFT
   Definitions
      At line 1927 in file MKL05Z4.s
   Uses
      None
Comment: PORT_GPCHR_GPWE_SHIFT unused
PORT_GPCLR_GPWD_MASK 0000FFFF

Symbol: PORT_GPCLR_GPWD_MASK
   Definitions
      At line 1916 in file MKL05Z4.s
   Uses
      None
Comment: PORT_GPCLR_GPWD_MASK unused
PORT_GPCLR_GPWD_SHIFT 00000000



ARM Macro Assembler    Page 131 Alphabetic symbol ordering
Absolute symbols


Symbol: PORT_GPCLR_GPWD_SHIFT
   Definitions
      At line 1917 in file MKL05Z4.s
   Uses
      None
Comment: PORT_GPCLR_GPWD_SHIFT unused
PORT_GPCLR_GPWE_MASK FFFF0000

Symbol: PORT_GPCLR_GPWE_MASK
   Definitions
      At line 1914 in file MKL05Z4.s
   Uses
      None
Comment: PORT_GPCLR_GPWE_MASK unused
PORT_GPCLR_GPWE_SHIFT 00000010

Symbol: PORT_GPCLR_GPWE_SHIFT
   Definitions
      At line 1915 in file MKL05Z4.s
   Uses
      None
Comment: PORT_GPCLR_GPWE_SHIFT unused
PORT_ISFR_ISF_MASK FFFFFFFF

Symbol: PORT_ISFR_ISF_MASK
   Definitions
      At line 1943 in file MKL05Z4.s
   Uses
      None
Comment: PORT_ISFR_ISF_MASK unused
PORT_ISFR_ISF_SHIFT 00000000

Symbol: PORT_ISFR_ISF_SHIFT
   Definitions
      At line 1944 in file MKL05Z4.s
   Uses
      None
Comment: PORT_ISFR_ISF_SHIFT unused
PORT_PCR_DSE_MASK 00000040

Symbol: PORT_PCR_DSE_MASK
   Definitions
      At line 1888 in file MKL05Z4.s
   Uses
      None
Comment: PORT_PCR_DSE_MASK unused
PORT_PCR_DSE_SHIFT 00000006

Symbol: PORT_PCR_DSE_SHIFT
   Definitions
      At line 1889 in file MKL05Z4.s
   Uses
      None
Comment: PORT_PCR_DSE_SHIFT unused
PORT_PCR_IRCQ_MASK 000F0000

Symbol: PORT_PCR_IRCQ_MASK
   Definitions



ARM Macro Assembler    Page 132 Alphabetic symbol ordering
Absolute symbols

      At line 1884 in file MKL05Z4.s
   Uses
      None
Comment: PORT_PCR_IRCQ_MASK unused
PORT_PCR_IRCQ_SHIFT 00000010

Symbol: PORT_PCR_IRCQ_SHIFT
   Definitions
      At line 1885 in file MKL05Z4.s
   Uses
      None
Comment: PORT_PCR_IRCQ_SHIFT unused
PORT_PCR_ISF_MASK 01000000

Symbol: PORT_PCR_ISF_MASK
   Definitions
      At line 1882 in file MKL05Z4.s
   Uses
      At line 129 in file Ex_12.s
      At line 131 in file Ex_12.s
      At line 279 in file Ex_12.s
      At line 282 in file Ex_12.s
      At line 285 in file Ex_12.s

PORT_PCR_ISF_SHIFT 00000018

Symbol: PORT_PCR_ISF_SHIFT
   Definitions
      At line 1883 in file MKL05Z4.s
   Uses
      None
Comment: PORT_PCR_ISF_SHIFT unused
PORT_PCR_MUX_MASK 00000700

Symbol: PORT_PCR_MUX_MASK
   Definitions
      At line 1886 in file MKL05Z4.s
   Uses
      None
Comment: PORT_PCR_MUX_MASK unused
PORT_PCR_MUX_SELECT_0_MASK 00000000

Symbol: PORT_PCR_MUX_SELECT_0_MASK
   Definitions
      At line 1898 in file MKL05Z4.s
   Uses
      None
Comment: PORT_PCR_MUX_SELECT_0_MASK unused
PORT_PCR_MUX_SELECT_1_MASK 00000100

Symbol: PORT_PCR_MUX_SELECT_1_MASK
   Definitions
      At line 1899 in file MKL05Z4.s
   Uses
      At line 279 in file Ex_12.s
      At line 282 in file Ex_12.s
      At line 285 in file Ex_12.s

PORT_PCR_MUX_SELECT_2_MASK 00000200



ARM Macro Assembler    Page 133 Alphabetic symbol ordering
Absolute symbols


Symbol: PORT_PCR_MUX_SELECT_2_MASK
   Definitions
      At line 1900 in file MKL05Z4.s
   Uses
      At line 129 in file Ex_12.s
      At line 131 in file Ex_12.s

PORT_PCR_MUX_SELECT_3_MASK 00000300

Symbol: PORT_PCR_MUX_SELECT_3_MASK
   Definitions
      At line 1901 in file MKL05Z4.s
   Uses
      None
Comment: PORT_PCR_MUX_SELECT_3_MASK unused
PORT_PCR_MUX_SELECT_4_MASK 00000400

Symbol: PORT_PCR_MUX_SELECT_4_MASK
   Definitions
      At line 1902 in file MKL05Z4.s
   Uses
      None
Comment: PORT_PCR_MUX_SELECT_4_MASK unused
PORT_PCR_MUX_SELECT_5_MASK 00000500

Symbol: PORT_PCR_MUX_SELECT_5_MASK
   Definitions
      At line 1903 in file MKL05Z4.s
   Uses
      None
Comment: PORT_PCR_MUX_SELECT_5_MASK unused
PORT_PCR_MUX_SELECT_6_MASK 00000600

Symbol: PORT_PCR_MUX_SELECT_6_MASK
   Definitions
      At line 1904 in file MKL05Z4.s
   Uses
      None
Comment: PORT_PCR_MUX_SELECT_6_MASK unused
PORT_PCR_MUX_SELECT_7_MASK 00000700

Symbol: PORT_PCR_MUX_SELECT_7_MASK
   Definitions
      At line 1905 in file MKL05Z4.s
   Uses
      None
Comment: PORT_PCR_MUX_SELECT_7_MASK unused
PORT_PCR_MUX_SHIFT 00000008

Symbol: PORT_PCR_MUX_SHIFT
   Definitions
      At line 1887 in file MKL05Z4.s
   Uses
      None
Comment: PORT_PCR_MUX_SHIFT unused
PORT_PCR_PE_MASK 00000002

Symbol: PORT_PCR_PE_MASK



ARM Macro Assembler    Page 134 Alphabetic symbol ordering
Absolute symbols

   Definitions
      At line 1894 in file MKL05Z4.s
   Uses
      None
Comment: PORT_PCR_PE_MASK unused
PORT_PCR_PE_SHIFT 00000001

Symbol: PORT_PCR_PE_SHIFT
   Definitions
      At line 1895 in file MKL05Z4.s
   Uses
      None
Comment: PORT_PCR_PE_SHIFT unused
PORT_PCR_PFE_MASK 00000010

Symbol: PORT_PCR_PFE_MASK
   Definitions
      At line 1890 in file MKL05Z4.s
   Uses
      None
Comment: PORT_PCR_PFE_MASK unused
PORT_PCR_PFE_SHIFT 00000004

Symbol: PORT_PCR_PFE_SHIFT
   Definitions
      At line 1891 in file MKL05Z4.s
   Uses
      None
Comment: PORT_PCR_PFE_SHIFT unused
PORT_PCR_PS_MASK 00000001

Symbol: PORT_PCR_PS_MASK
   Definitions
      At line 1896 in file MKL05Z4.s
   Uses
      None
Comment: PORT_PCR_PS_MASK unused
PORT_PCR_PS_SHIFT 00000000

Symbol: PORT_PCR_PS_SHIFT
   Definitions
      At line 1897 in file MKL05Z4.s
   Uses
      None
Comment: PORT_PCR_PS_SHIFT unused
PORT_PCR_SET_PTB10_GPIO 01000100

Symbol: PORT_PCR_SET_PTB10_GPIO
   Definitions
      At line 285 in file Ex_12.s
   Uses
      At line 638 in file Ex_12.s
Comment: PORT_PCR_SET_PTB10_GPIO used once
PORT_PCR_SET_PTB1_UART0_TX 01000200

Symbol: PORT_PCR_SET_PTB1_UART0_TX
   Definitions
      At line 131 in file Ex_12.s
   Uses



ARM Macro Assembler    Page 135 Alphabetic symbol ordering
Absolute symbols

      At line 1301 in file Ex_12.s
Comment: PORT_PCR_SET_PTB1_UART0_TX used once
PORT_PCR_SET_PTB2_UART0_RX 01000200

Symbol: PORT_PCR_SET_PTB2_UART0_RX
   Definitions
      At line 129 in file Ex_12.s
   Uses
      At line 1296 in file Ex_12.s
Comment: PORT_PCR_SET_PTB2_UART0_RX used once
PORT_PCR_SET_PTB8_GPIO 01000100

Symbol: PORT_PCR_SET_PTB8_GPIO
   Definitions
      At line 279 in file Ex_12.s
   Uses
      At line 632 in file Ex_12.s
Comment: PORT_PCR_SET_PTB8_GPIO used once
PORT_PCR_SET_PTB9_GPIO 01000100

Symbol: PORT_PCR_SET_PTB9_GPIO
   Definitions
      At line 282 in file Ex_12.s
   Uses
      At line 635 in file Ex_12.s
Comment: PORT_PCR_SET_PTB9_GPIO used once
PORT_PCR_SRE_MASK 00000004

Symbol: PORT_PCR_SRE_MASK
   Definitions
      At line 1892 in file MKL05Z4.s
   Uses
      None
Comment: PORT_PCR_SRE_MASK unused
PORT_PCR_SRE_SHIFT 00000002

Symbol: PORT_PCR_SRE_SHIFT
   Definitions
      At line 1893 in file MKL05Z4.s
   Uses
      None
Comment: PORT_PCR_SRE_SHIFT unused
POS_BLUE 0000000A

Symbol: POS_BLUE
   Definitions
      At line 268 in file Ex_12.s
   Uses
      At line 271 in file Ex_12.s
Comment: POS_BLUE used once
POS_GREEN 00000009

Symbol: POS_GREEN
   Definitions
      At line 267 in file Ex_12.s
   Uses
      At line 270 in file Ex_12.s
Comment: POS_GREEN used once
POS_RED 00000008



ARM Macro Assembler    Page 136 Alphabetic symbol ordering
Absolute symbols


Symbol: POS_RED
   Definitions
      At line 266 in file Ex_12.s
   Uses
      At line 269 in file Ex_12.s
Comment: POS_RED used once
PRIMASK_PM_MASK 00000001

Symbol: PRIMASK_PM_MASK
   Definitions
      At line 72 in file MKL05Z4.s
   Uses
      None
Comment: PRIMASK_PM_MASK unused
PRIMASK_PM_SHIFT 00000000

Symbol: PRIMASK_PM_SHIFT
   Definitions
      At line 73 in file MKL05Z4.s
   Uses
      None
Comment: PRIMASK_PM_SHIFT unused
PSR_C_MASK 20000000

Symbol: PSR_C_MASK
   Definitions
      At line 129 in file MKL05Z4.s
   Uses
      None
Comment: PSR_C_MASK unused
PSR_C_SHIFT 0000001D

Symbol: PSR_C_SHIFT
   Definitions
      At line 130 in file MKL05Z4.s
   Uses
      None
Comment: PSR_C_SHIFT unused
PSR_EXCEPTION_MASK 0000003F

Symbol: PSR_EXCEPTION_MASK
   Definitions
      At line 135 in file MKL05Z4.s
   Uses
      None
Comment: PSR_EXCEPTION_MASK unused
PSR_EXCEPTION_SHIFT 00000000

Symbol: PSR_EXCEPTION_SHIFT
   Definitions
      At line 136 in file MKL05Z4.s
   Uses
      None
Comment: PSR_EXCEPTION_SHIFT unused
PSR_N_MASK 80000000

Symbol: PSR_N_MASK
   Definitions



ARM Macro Assembler    Page 137 Alphabetic symbol ordering
Absolute symbols

      At line 125 in file MKL05Z4.s
   Uses
      None
Comment: PSR_N_MASK unused
PSR_N_SHIFT 0000001F

Symbol: PSR_N_SHIFT
   Definitions
      At line 126 in file MKL05Z4.s
   Uses
      None
Comment: PSR_N_SHIFT unused
PSR_T_MASK 01000000

Symbol: PSR_T_MASK
   Definitions
      At line 133 in file MKL05Z4.s
   Uses
      None
Comment: PSR_T_MASK unused
PSR_T_SHIFT 00000018

Symbol: PSR_T_SHIFT
   Definitions
      At line 134 in file MKL05Z4.s
   Uses
      None
Comment: PSR_T_SHIFT unused
PSR_V_MASK 10000000

Symbol: PSR_V_MASK
   Definitions
      At line 131 in file MKL05Z4.s
   Uses
      None
Comment: PSR_V_MASK unused
PSR_V_SHIFT 0000001C

Symbol: PSR_V_SHIFT
   Definitions
      At line 132 in file MKL05Z4.s
   Uses
      None
Comment: PSR_V_SHIFT unused
PSR_Z_MASK 40000000

Symbol: PSR_Z_MASK
   Definitions
      At line 127 in file MKL05Z4.s
   Uses
      None
Comment: PSR_Z_MASK unused
PSR_Z_SHIFT 0000001E

Symbol: PSR_Z_SHIFT
   Definitions
      At line 128 in file MKL05Z4.s
   Uses
      None



ARM Macro Assembler    Page 138 Alphabetic symbol ordering
Absolute symbols

Comment: PSR_Z_SHIFT unused
PTA_BASE 400FF000

Symbol: PTA_BASE
   Definitions
      At line 1971 in file MKL05Z4.s
   Uses
      At line 1972 in file MKL05Z4.s
      At line 1973 in file MKL05Z4.s
      At line 1974 in file MKL05Z4.s
      At line 1975 in file MKL05Z4.s
      At line 1976 in file MKL05Z4.s
      At line 1977 in file MKL05Z4.s

PTA_OFFSET 00000000

Symbol: PTA_OFFSET
   Definitions
      At line 1968 in file MKL05Z4.s
   Uses
      None
Comment: PTA_OFFSET unused
PTA_PCOR 400FF008

Symbol: PTA_PCOR
   Definitions
      At line 1974 in file MKL05Z4.s
   Uses
      None
Comment: PTA_PCOR unused
PTA_PDDR 400FF014

Symbol: PTA_PDDR
   Definitions
      At line 1977 in file MKL05Z4.s
   Uses
      None
Comment: PTA_PDDR unused
PTA_PDIR 400FF010

Symbol: PTA_PDIR
   Definitions
      At line 1976 in file MKL05Z4.s
   Uses
      None
Comment: PTA_PDIR unused
PTA_PDOR 400FF000

Symbol: PTA_PDOR
   Definitions
      At line 1972 in file MKL05Z4.s
   Uses
      None
Comment: PTA_PDOR unused
PTA_PSOR 400FF004

Symbol: PTA_PSOR
   Definitions
      At line 1973 in file MKL05Z4.s



ARM Macro Assembler    Page 139 Alphabetic symbol ordering
Absolute symbols

   Uses
      None
Comment: PTA_PSOR unused
PTA_PTOR 400FF00C

Symbol: PTA_PTOR
   Definitions
      At line 1975 in file MKL05Z4.s
   Uses
      None
Comment: PTA_PTOR unused
PTB_BASE 400FF040

Symbol: PTB_BASE
   Definitions
      At line 1979 in file MKL05Z4.s
   Uses
      At line 1980 in file MKL05Z4.s
      At line 1981 in file MKL05Z4.s
      At line 1982 in file MKL05Z4.s
      At line 1983 in file MKL05Z4.s
      At line 1984 in file MKL05Z4.s
      At line 1985 in file MKL05Z4.s

PTB_OFFSET 00000040

Symbol: PTB_OFFSET
   Definitions
      At line 1969 in file MKL05Z4.s
   Uses
      None
Comment: PTB_OFFSET unused
PTB_PCOR 400FF048

Symbol: PTB_PCOR
   Definitions
      At line 1982 in file MKL05Z4.s
   Uses
      None
Comment: PTB_PCOR unused
PTB_PDDR 400FF054

Symbol: PTB_PDDR
   Definitions
      At line 1985 in file MKL05Z4.s
   Uses
      None
Comment: PTB_PDDR unused
PTB_PDIR 400FF050

Symbol: PTB_PDIR
   Definitions
      At line 1984 in file MKL05Z4.s
   Uses
      None
Comment: PTB_PDIR unused
PTB_PDOR 400FF040

Symbol: PTB_PDOR



ARM Macro Assembler    Page 140 Alphabetic symbol ordering
Absolute symbols

   Definitions
      At line 1980 in file MKL05Z4.s
   Uses
      None
Comment: PTB_PDOR unused
PTB_PSOR 400FF044

Symbol: PTB_PSOR
   Definitions
      At line 1981 in file MKL05Z4.s
   Uses
      None
Comment: PTB_PSOR unused
PTB_PTOR 400FF04C

Symbol: PTB_PTOR
   Definitions
      At line 1983 in file MKL05Z4.s
   Uses
      None
Comment: PTB_PTOR unused
PT_BASE 400FF000

Symbol: PT_BASE
   Definitions
      At line 1961 in file MKL05Z4.s
   Uses
      None
Comment: PT_BASE unused
PT_PCOR_OFFSET 00000008

Symbol: PT_PCOR_OFFSET
   Definitions
      At line 1964 in file MKL05Z4.s
   Uses
      At line 1974 in file MKL05Z4.s
      At line 1982 in file MKL05Z4.s

PT_PDDR_OFFSET 00000014

Symbol: PT_PDDR_OFFSET
   Definitions
      At line 1967 in file MKL05Z4.s
   Uses
      At line 1977 in file MKL05Z4.s
      At line 1985 in file MKL05Z4.s

PT_PDIR_OFFSET 00000010

Symbol: PT_PDIR_OFFSET
   Definitions
      At line 1966 in file MKL05Z4.s
   Uses
      At line 1976 in file MKL05Z4.s
      At line 1984 in file MKL05Z4.s

PT_PDOR_OFFSET 00000000

Symbol: PT_PDOR_OFFSET



ARM Macro Assembler    Page 141 Alphabetic symbol ordering
Absolute symbols

   Definitions
      At line 1962 in file MKL05Z4.s
   Uses
      At line 1972 in file MKL05Z4.s
      At line 1980 in file MKL05Z4.s

PT_PSOR_OFFSET 00000004

Symbol: PT_PSOR_OFFSET
   Definitions
      At line 1963 in file MKL05Z4.s
   Uses
      At line 1973 in file MKL05Z4.s
      At line 1981 in file MKL05Z4.s

PT_PTOR_OFFSET 0000000C

Symbol: PT_PTOR_OFFSET
   Definitions
      At line 1965 in file MKL05Z4.s
   Uses
      At line 1975 in file MKL05Z4.s
      At line 1983 in file MKL05Z4.s

P_ascii 00000050

Symbol: P_ascii
   Definitions
      At line 41 in file Ex_12.s
   Uses
      At line 529 in file Ex_12.s
Comment: P_ascii used once
PendSV_IRQn FFFFFFFE

Symbol: PendSV_IRQn
   Definitions
      At line 152 in file MKL05Z4.s
   Uses
      None
Comment: PendSV_IRQn unused
PendSV_Vector 0000000E

Symbol: PendSV_Vector
   Definitions
      At line 1556 in file MKL05Z4.s
   Uses
      None
Comment: PendSV_Vector unused
Q_BUF_SZ 00000004

Symbol: Q_BUF_SZ
   Definitions
      At line 50 in file Ex_12.s
   Uses
      None
Comment: Q_BUF_SZ unused
Q_REC_SZ 00000012

Symbol: Q_REC_SZ



ARM Macro Assembler    Page 142 Alphabetic symbol ordering
Absolute symbols

   Definitions
      At line 51 in file Ex_12.s
   Uses
      None
Comment: Q_REC_SZ unused
RET_ADDR_T_MASK 00000001

Symbol: RET_ADDR_T_MASK
   Definitions
      At line 44 in file MKL05Z4.s
   Uses
      None
Comment: RET_ADDR_T_MASK unused
RTC_IPR E000E414

Symbol: RTC_IPR
   Definitions
      At line 1458 in file MKL05Z4.s
   Uses
      None
Comment: RTC_IPR unused
RTC_IRQ_MASK 00100000

Symbol: RTC_IRQ_MASK
   Definitions
      At line 1528 in file MKL05Z4.s
   Uses
      None
Comment: RTC_IRQ_MASK unused
RTC_IRQn 00000014

Symbol: RTC_IRQn
   Definitions
      At line 177 in file MKL05Z4.s
   Uses
      At line 1528 in file MKL05Z4.s
Comment: RTC_IRQn used once
RTC_PRI_POS 00000006

Symbol: RTC_PRI_POS
   Definitions
      At line 1494 in file MKL05Z4.s
   Uses
      None
Comment: RTC_PRI_POS unused
RTC_Seconds_IPR E000E414

Symbol: RTC_Seconds_IPR
   Definitions
      At line 1459 in file MKL05Z4.s
   Uses
      None
Comment: RTC_Seconds_IPR unused
RTC_Seconds_IRQ_MASK 00200000

Symbol: RTC_Seconds_IRQ_MASK
   Definitions
      At line 1529 in file MKL05Z4.s
   Uses



ARM Macro Assembler    Page 143 Alphabetic symbol ordering
Absolute symbols

      None
Comment: RTC_Seconds_IRQ_MASK unused
RTC_Seconds_IRQn 00000015

Symbol: RTC_Seconds_IRQn
   Definitions
      At line 178 in file MKL05Z4.s
   Uses
      At line 1529 in file MKL05Z4.s
Comment: RTC_Seconds_IRQn used once
RTC_Seconds_PRI_POS 0000000E

Symbol: RTC_Seconds_PRI_POS
   Definitions
      At line 1495 in file MKL05Z4.s
   Uses
      None
Comment: RTC_Seconds_PRI_POS unused
RTC_Seconds_Vector 00000025

Symbol: RTC_Seconds_Vector
   Definitions
      At line 1580 in file MKL05Z4.s
   Uses
      None
Comment: RTC_Seconds_Vector unused
RTC_Vector 00000024

Symbol: RTC_Vector
   Definitions
      At line 1579 in file MKL05Z4.s
   Uses
      None
Comment: RTC_Vector unused
Reserved04_Vector 00000004

Symbol: Reserved04_Vector
   Definitions
      At line 1546 in file MKL05Z4.s
   Uses
      None
Comment: Reserved04_Vector unused
Reserved05_Vector 00000005

Symbol: Reserved05_Vector
   Definitions
      At line 1547 in file MKL05Z4.s
   Uses
      None
Comment: Reserved05_Vector unused
Reserved06_Vector 00000006

Symbol: Reserved06_Vector
   Definitions
      At line 1548 in file MKL05Z4.s
   Uses
      None
Comment: Reserved06_Vector unused
Reserved07_Vector 00000007



ARM Macro Assembler    Page 144 Alphabetic symbol ordering
Absolute symbols


Symbol: Reserved07_Vector
   Definitions
      At line 1549 in file MKL05Z4.s
   Uses
      None
Comment: Reserved07_Vector unused
Reserved08_Vector 00000008

Symbol: Reserved08_Vector
   Definitions
      At line 1550 in file MKL05Z4.s
   Uses
      None
Comment: Reserved08_Vector unused
Reserved09_Vector 00000009

Symbol: Reserved09_Vector
   Definitions
      At line 1551 in file MKL05Z4.s
   Uses
      None
Comment: Reserved09_Vector unused
Reserved10_Vector 0000000A

Symbol: Reserved10_Vector
   Definitions
      At line 1552 in file MKL05Z4.s
   Uses
      None
Comment: Reserved10_Vector unused
Reserved12_Vector 0000000C

Symbol: Reserved12_Vector
   Definitions
      At line 1554 in file MKL05Z4.s
   Uses
      None
Comment: Reserved12_Vector unused
Reserved13_Vector 0000000D

Symbol: Reserved13_Vector
   Definitions
      At line 1555 in file MKL05Z4.s
   Uses
      None
Comment: Reserved13_Vector unused
Reserved20_IPR E000E404

Symbol: Reserved20_IPR
   Definitions
      At line 1442 in file MKL05Z4.s
   Uses
      None
Comment: Reserved20_IPR unused
Reserved20_IRQ_MASK 00000010

Symbol: Reserved20_IRQ_MASK
   Definitions



ARM Macro Assembler    Page 145 Alphabetic symbol ordering
Absolute symbols

      At line 1512 in file MKL05Z4.s
   Uses
      None
Comment: Reserved20_IRQ_MASK unused
Reserved20_IRQn 00000004

Symbol: Reserved20_IRQn
   Definitions
      At line 161 in file MKL05Z4.s
   Uses
      At line 1512 in file MKL05Z4.s
Comment: Reserved20_IRQn used once
Reserved20_PRI_POS 00000006

Symbol: Reserved20_PRI_POS
   Definitions
      At line 1478 in file MKL05Z4.s
   Uses
      None
Comment: Reserved20_PRI_POS unused
Reserved20_Vector 00000014

Symbol: Reserved20_Vector
   Definitions
      At line 1563 in file MKL05Z4.s
   Uses
      None
Comment: Reserved20_Vector unused
Reserved25_IPR E000E408

Symbol: Reserved25_IPR
   Definitions
      At line 1447 in file MKL05Z4.s
   Uses
      None
Comment: Reserved25_IPR unused
Reserved25_IRQ_MASK 00000200

Symbol: Reserved25_IRQ_MASK
   Definitions
      At line 1517 in file MKL05Z4.s
   Uses
      None
Comment: Reserved25_IRQ_MASK unused
Reserved25_IRQn 00000009

Symbol: Reserved25_IRQn
   Definitions
      At line 166 in file MKL05Z4.s
   Uses
      At line 1517 in file MKL05Z4.s
Comment: Reserved25_IRQn used once
Reserved25_PRI_POS 0000000E

Symbol: Reserved25_PRI_POS
   Definitions
      At line 1483 in file MKL05Z4.s
   Uses
      None



ARM Macro Assembler    Page 146 Alphabetic symbol ordering
Absolute symbols

Comment: Reserved25_PRI_POS unused
Reserved25_Vector 00000019

Symbol: Reserved25_Vector
   Definitions
      At line 1568 in file MKL05Z4.s
   Uses
      None
Comment: Reserved25_Vector unused
Reserved27_IPR E000E408

Symbol: Reserved27_IPR
   Definitions
      At line 1449 in file MKL05Z4.s
   Uses
      None
Comment: Reserved27_IPR unused
Reserved27_IRQ_MASK 00000800

Symbol: Reserved27_IRQ_MASK
   Definitions
      At line 1519 in file MKL05Z4.s
   Uses
      None
Comment: Reserved27_IRQ_MASK unused
Reserved27_IRQn 0000000B

Symbol: Reserved27_IRQn
   Definitions
      At line 168 in file MKL05Z4.s
   Uses
      At line 1519 in file MKL05Z4.s
Comment: Reserved27_IRQn used once
Reserved27_PRI_POS 0000001E

Symbol: Reserved27_PRI_POS
   Definitions
      At line 1485 in file MKL05Z4.s
   Uses
      None
Comment: Reserved27_PRI_POS unused
Reserved27_Vector 0000001B

Symbol: Reserved27_Vector
   Definitions
      At line 1570 in file MKL05Z4.s
   Uses
      None
Comment: Reserved27_Vector unused
Reserved29_IPR E000E40C

Symbol: Reserved29_IPR
   Definitions
      At line 1451 in file MKL05Z4.s
   Uses
      None
Comment: Reserved29_IPR unused
Reserved29_IRQ_MASK 00002000




ARM Macro Assembler    Page 147 Alphabetic symbol ordering
Absolute symbols

Symbol: Reserved29_IRQ_MASK
   Definitions
      At line 1521 in file MKL05Z4.s
   Uses
      None
Comment: Reserved29_IRQ_MASK unused
Reserved29_IRQn 0000000D

Symbol: Reserved29_IRQn
   Definitions
      At line 170 in file MKL05Z4.s
   Uses
      At line 1521 in file MKL05Z4.s
Comment: Reserved29_IRQn used once
Reserved29_PRI_POS 0000000E

Symbol: Reserved29_PRI_POS
   Definitions
      At line 1487 in file MKL05Z4.s
   Uses
      None
Comment: Reserved29_PRI_POS unused
Reserved29_Vector 0000001D

Symbol: Reserved29_Vector
   Definitions
      At line 1572 in file MKL05Z4.s
   Uses
      None
Comment: Reserved29_Vector unused
Reserved30_IPR E000E40C

Symbol: Reserved30_IPR
   Definitions
      At line 1452 in file MKL05Z4.s
   Uses
      None
Comment: Reserved30_IPR unused
Reserved30_IRQ_MASK 00004000

Symbol: Reserved30_IRQ_MASK
   Definitions
      At line 1522 in file MKL05Z4.s
   Uses
      None
Comment: Reserved30_IRQ_MASK unused
Reserved30_IRQn 0000000E

Symbol: Reserved30_IRQn
   Definitions
      At line 171 in file MKL05Z4.s
   Uses
      At line 1522 in file MKL05Z4.s
Comment: Reserved30_IRQn used once
Reserved30_PRI_POS 00000016

Symbol: Reserved30_PRI_POS
   Definitions
      At line 1488 in file MKL05Z4.s



ARM Macro Assembler    Page 148 Alphabetic symbol ordering
Absolute symbols

   Uses
      None
Comment: Reserved30_PRI_POS unused
Reserved30_Vector 0000001E

Symbol: Reserved30_Vector
   Definitions
      At line 1573 in file MKL05Z4.s
   Uses
      None
Comment: Reserved30_Vector unused
Reserved35_IPR E000E410

Symbol: Reserved35_IPR
   Definitions
      At line 1457 in file MKL05Z4.s
   Uses
      None
Comment: Reserved35_IPR unused
Reserved35_IRQ_MASK 00080000

Symbol: Reserved35_IRQ_MASK
   Definitions
      At line 1527 in file MKL05Z4.s
   Uses
      None
Comment: Reserved35_IRQ_MASK unused
Reserved35_IRQn 00000013

Symbol: Reserved35_IRQn
   Definitions
      At line 176 in file MKL05Z4.s
   Uses
      At line 1527 in file MKL05Z4.s
Comment: Reserved35_IRQn used once
Reserved35_PRI_POS 0000001E

Symbol: Reserved35_PRI_POS
   Definitions
      At line 1493 in file MKL05Z4.s
   Uses
      None
Comment: Reserved35_PRI_POS unused
Reserved35_Vector 00000023

Symbol: Reserved35_Vector
   Definitions
      At line 1578 in file MKL05Z4.s
   Uses
      None
Comment: Reserved35_Vector unused
Reserved39_IPR E000E414

Symbol: Reserved39_IPR
   Definitions
      At line 1461 in file MKL05Z4.s
   Uses
      None
Comment: Reserved39_IPR unused



ARM Macro Assembler    Page 149 Alphabetic symbol ordering
Absolute symbols

Reserved39_IRQ_MASK 00800000

Symbol: Reserved39_IRQ_MASK
   Definitions
      At line 1531 in file MKL05Z4.s
   Uses
      None
Comment: Reserved39_IRQ_MASK unused
Reserved39_IRQn 00000017

Symbol: Reserved39_IRQn
   Definitions
      At line 180 in file MKL05Z4.s
   Uses
      At line 1531 in file MKL05Z4.s
Comment: Reserved39_IRQn used once
Reserved39_PRI_POS 0000001E

Symbol: Reserved39_PRI_POS
   Definitions
      At line 1497 in file MKL05Z4.s
   Uses
      None
Comment: Reserved39_PRI_POS unused
Reserved39_Vector 00000027

Symbol: Reserved39_Vector
   Definitions
      At line 1582 in file MKL05Z4.s
   Uses
      None
Comment: Reserved39_Vector unused
Reserved40_IPR E000E418

Symbol: Reserved40_IPR
   Definitions
      At line 1462 in file MKL05Z4.s
   Uses
      None
Comment: Reserved40_IPR unused
Reserved40_IRQ_MASK 01000000

Symbol: Reserved40_IRQ_MASK
   Definitions
      At line 1532 in file MKL05Z4.s
   Uses
      None
Comment: Reserved40_IRQ_MASK unused
Reserved40_IRQn 00000018

Symbol: Reserved40_IRQn
   Definitions
      At line 181 in file MKL05Z4.s
   Uses
      At line 1532 in file MKL05Z4.s
Comment: Reserved40_IRQn used once
Reserved40_PRI_POS 00000006

Symbol: Reserved40_PRI_POS



ARM Macro Assembler    Page 150 Alphabetic symbol ordering
Absolute symbols

   Definitions
      At line 1498 in file MKL05Z4.s
   Uses
      None
Comment: Reserved40_PRI_POS unused
Reserved40_Vector 00000028

Symbol: Reserved40_Vector
   Definitions
      At line 1583 in file MKL05Z4.s
   Uses
      None
Comment: Reserved40_Vector unused
Reserved45_IPR E000E41C

Symbol: Reserved45_IPR
   Definitions
      At line 1467 in file MKL05Z4.s
   Uses
      None
Comment: Reserved45_IPR unused
Reserved45_IRQ_MASK 20000000

Symbol: Reserved45_IRQ_MASK
   Definitions
      At line 1537 in file MKL05Z4.s
   Uses
      None
Comment: Reserved45_IRQ_MASK unused
Reserved45_IRQn 0000001D

Symbol: Reserved45_IRQn
   Definitions
      At line 186 in file MKL05Z4.s
   Uses
      At line 1537 in file MKL05Z4.s
Comment: Reserved45_IRQn used once
Reserved45_PRI_POS 0000000E

Symbol: Reserved45_PRI_POS
   Definitions
      At line 1503 in file MKL05Z4.s
   Uses
      None
Comment: Reserved45_PRI_POS unused
Reserved45_Vector 0000002D

Symbol: Reserved45_Vector
   Definitions
      At line 1588 in file MKL05Z4.s
   Uses
      None
Comment: Reserved45_Vector unused
Reset_Vector 00000001

Symbol: Reset_Vector
   Definitions
      At line 1543 in file MKL05Z4.s
   Uses



ARM Macro Assembler    Page 151 Alphabetic symbol ordering
Absolute symbols

      None
Comment: Reset_Vector unused
Rx_Q_BUF 00000050

Symbol: Rx_Q_BUF
   Definitions
      At line 48 in file Ex_12.s
   Uses
      At line 1257 in file Ex_12.s
      At line 1622 in file Ex_12.s

Rx_Q_REC 00000012

Symbol: Rx_Q_REC
   Definitions
      At line 44 in file Ex_12.s
   Uses
      At line 1624 in file Ex_12.s
Comment: Rx_Q_REC used once
SIM_BASE 40047000

Symbol: SIM_BASE
   Definitions
      At line 1991 in file MKL05Z4.s
   Uses
      At line 2011 in file MKL05Z4.s
      At line 2012 in file MKL05Z4.s
      At line 2013 in file MKL05Z4.s
      At line 2014 in file MKL05Z4.s
      At line 2015 in file MKL05Z4.s
      At line 2016 in file MKL05Z4.s
      At line 2017 in file MKL05Z4.s
      At line 2018 in file MKL05Z4.s
      At line 2019 in file MKL05Z4.s
      At line 2020 in file MKL05Z4.s
      At line 2021 in file MKL05Z4.s
      At line 2022 in file MKL05Z4.s
      At line 2023 in file MKL05Z4.s
      At line 2024 in file MKL05Z4.s
      At line 2025 in file MKL05Z4.s
      At line 2026 in file MKL05Z4.s
      At line 2027 in file MKL05Z4.s
      At line 2028 in file MKL05Z4.s
      At line 2029 in file MKL05Z4.s

SIM_CLKDIV1 40048044

Symbol: SIM_CLKDIV1
   Definitions
      At line 2011 in file MKL05Z4.s
   Uses
      None
Comment: SIM_CLKDIV1 unused
SIM_CLKDIV1_OFFSET 00001044

Symbol: SIM_CLKDIV1_OFFSET
   Definitions
      At line 2003 in file MKL05Z4.s
   Uses



ARM Macro Assembler    Page 152 Alphabetic symbol ordering
Absolute symbols

      At line 2011 in file MKL05Z4.s
Comment: SIM_CLKDIV1_OFFSET used once
SIM_CLKDIV1_OUTDIV1_MASK F0000000

Symbol: SIM_CLKDIV1_OUTDIV1_MASK
   Definitions
      At line 2042 in file MKL05Z4.s
   Uses
      None
Comment: SIM_CLKDIV1_OUTDIV1_MASK unused
SIM_CLKDIV1_OUTDIV1_SHIFT 0000001C

Symbol: SIM_CLKDIV1_OUTDIV1_SHIFT
   Definitions
      At line 2043 in file MKL05Z4.s
   Uses
      None
Comment: SIM_CLKDIV1_OUTDIV1_SHIFT unused
SIM_CLKDIV1_OUTDIV4_MASK 00070000

Symbol: SIM_CLKDIV1_OUTDIV4_MASK
   Definitions
      At line 2044 in file MKL05Z4.s
   Uses
      None
Comment: SIM_CLKDIV1_OUTDIV4_MASK unused
SIM_CLKDIV1_OUTDIV4_SHIFT 00000010

Symbol: SIM_CLKDIV1_OUTDIV4_SHIFT
   Definitions
      At line 2045 in file MKL05Z4.s
   Uses
      None
Comment: SIM_CLKDIV1_OUTDIV4_SHIFT unused
SIM_COPC 40048100

Symbol: SIM_COPC
   Definitions
      At line 2012 in file MKL05Z4.s
   Uses
      None
Comment: SIM_COPC unused
SIM_COPC_OFFSET 00001100

Symbol: SIM_COPC_OFFSET
   Definitions
      At line 2009 in file MKL05Z4.s
   Uses
      At line 2012 in file MKL05Z4.s
Comment: SIM_COPC_OFFSET used once
SIM_FCFG1 4004804C

Symbol: SIM_FCFG1
   Definitions
      At line 2013 in file MKL05Z4.s
   Uses
      None
Comment: SIM_FCFG1 unused
SIM_FCFG1_OFFSET 0000104C



ARM Macro Assembler    Page 153 Alphabetic symbol ordering
Absolute symbols


Symbol: SIM_FCFG1_OFFSET
   Definitions
      At line 2004 in file MKL05Z4.s
   Uses
      At line 2013 in file MKL05Z4.s
Comment: SIM_FCFG1_OFFSET used once
SIM_FCFG2 40048050

Symbol: SIM_FCFG2
   Definitions
      At line 2014 in file MKL05Z4.s
   Uses
      None
Comment: SIM_FCFG2 unused
SIM_FCFG2_OFFSET 00001050

Symbol: SIM_FCFG2_OFFSET
   Definitions
      At line 2005 in file MKL05Z4.s
   Uses
      At line 2014 in file MKL05Z4.s
Comment: SIM_FCFG2_OFFSET used once
SIM_SCGC4 40048034

Symbol: SIM_SCGC4
   Definitions
      At line 2015 in file MKL05Z4.s
   Uses
      At line 1281 in file Ex_12.s
Comment: SIM_SCGC4 used once
SIM_SCGC4_CMP_MASK 00080000

Symbol: SIM_SCGC4_CMP_MASK
   Definitions
      At line 2085 in file MKL05Z4.s
   Uses
      None
Comment: SIM_SCGC4_CMP_MASK unused
SIM_SCGC4_CMP_SHIFT 00000013

Symbol: SIM_SCGC4_CMP_SHIFT
   Definitions
      At line 2086 in file MKL05Z4.s
   Uses
      None
Comment: SIM_SCGC4_CMP_SHIFT unused
SIM_SCGC4_I2C0_MASK 00000040

Symbol: SIM_SCGC4_I2C0_MASK
   Definitions
      At line 2089 in file MKL05Z4.s
   Uses
      None
Comment: SIM_SCGC4_I2C0_MASK unused
SIM_SCGC4_I2C0_SHIFT 00000006

Symbol: SIM_SCGC4_I2C0_SHIFT
   Definitions



ARM Macro Assembler    Page 154 Alphabetic symbol ordering
Absolute symbols

      At line 2090 in file MKL05Z4.s
   Uses
      None
Comment: SIM_SCGC4_I2C0_SHIFT unused
SIM_SCGC4_OFFSET 00001034

Symbol: SIM_SCGC4_OFFSET
   Definitions
      At line 1999 in file MKL05Z4.s
   Uses
      At line 2015 in file MKL05Z4.s
Comment: SIM_SCGC4_OFFSET used once
SIM_SCGC4_SPI0_MASK 00400000

Symbol: SIM_SCGC4_SPI0_MASK
   Definitions
      At line 2083 in file MKL05Z4.s
   Uses
      None
Comment: SIM_SCGC4_SPI0_MASK unused
SIM_SCGC4_SPI0_SHIFT 00000016

Symbol: SIM_SCGC4_SPI0_SHIFT
   Definitions
      At line 2084 in file MKL05Z4.s
   Uses
      None
Comment: SIM_SCGC4_SPI0_SHIFT unused
SIM_SCGC4_UART0_MASK 00000400

Symbol: SIM_SCGC4_UART0_MASK
   Definitions
      At line 2087 in file MKL05Z4.s
   Uses
      At line 1282 in file Ex_12.s
Comment: SIM_SCGC4_UART0_MASK used once
SIM_SCGC4_UART0_SHIFT 0000000A

Symbol: SIM_SCGC4_UART0_SHIFT
   Definitions
      At line 2088 in file MKL05Z4.s
   Uses
      None
Comment: SIM_SCGC4_UART0_SHIFT unused
SIM_SCGC5 40048038

Symbol: SIM_SCGC5
   Definitions
      At line 2016 in file MKL05Z4.s
   Uses
      At line 622 in file Ex_12.s
      At line 1288 in file Ex_12.s

SIM_SCGC5_LPTMR_MASK 00000001

Symbol: SIM_SCGC5_LPTMR_MASK
   Definitions
      At line 2113 in file MKL05Z4.s
   Uses



ARM Macro Assembler    Page 155 Alphabetic symbol ordering
Absolute symbols

      None
Comment: SIM_SCGC5_LPTMR_MASK unused
SIM_SCGC5_LPTMR_SHIFT 00000000

Symbol: SIM_SCGC5_LPTMR_SHIFT
   Definitions
      At line 2114 in file MKL05Z4.s
   Uses
      None
Comment: SIM_SCGC5_LPTMR_SHIFT unused
SIM_SCGC5_OFFSET 00001038

Symbol: SIM_SCGC5_OFFSET
   Definitions
      At line 2000 in file MKL05Z4.s
   Uses
      At line 2016 in file MKL05Z4.s
Comment: SIM_SCGC5_OFFSET used once
SIM_SCGC5_PORTA_MASK 00000200

Symbol: SIM_SCGC5_PORTA_MASK
   Definitions
      At line 2109 in file MKL05Z4.s
   Uses
      None
Comment: SIM_SCGC5_PORTA_MASK unused
SIM_SCGC5_PORTA_SHIFT 00000009

Symbol: SIM_SCGC5_PORTA_SHIFT
   Definitions
      At line 2110 in file MKL05Z4.s
   Uses
      None
Comment: SIM_SCGC5_PORTA_SHIFT unused
SIM_SCGC5_PORTB_MASK 00000400

Symbol: SIM_SCGC5_PORTB_MASK
   Definitions
      At line 2107 in file MKL05Z4.s
   Uses
      At line 623 in file Ex_12.s
      At line 1289 in file Ex_12.s

SIM_SCGC5_PORTB_SHIFT 0000000A

Symbol: SIM_SCGC5_PORTB_SHIFT
   Definitions
      At line 2108 in file MKL05Z4.s
   Uses
      None
Comment: SIM_SCGC5_PORTB_SHIFT unused
SIM_SCGC5_TSI_MASK 00000020

Symbol: SIM_SCGC5_TSI_MASK
   Definitions
      At line 2111 in file MKL05Z4.s
   Uses
      None
Comment: SIM_SCGC5_TSI_MASK unused



ARM Macro Assembler    Page 156 Alphabetic symbol ordering
Absolute symbols

SIM_SCGC5_TSI_SHIFT 00000005

Symbol: SIM_SCGC5_TSI_SHIFT
   Definitions
      At line 2112 in file MKL05Z4.s
   Uses
      None
Comment: SIM_SCGC5_TSI_SHIFT unused
SIM_SCGC6 4004803C

Symbol: SIM_SCGC6
   Definitions
      At line 2017 in file MKL05Z4.s
   Uses
      At line 1196 in file Ex_12.s
Comment: SIM_SCGC6 used once
SIM_SCGC6_ADC0_MASK 08000000

Symbol: SIM_SCGC6_ADC0_MASK
   Definitions
      At line 2135 in file MKL05Z4.s
   Uses
      None
Comment: SIM_SCGC6_ADC0_MASK unused
SIM_SCGC6_ADC0_SHIFT 0000001B

Symbol: SIM_SCGC6_ADC0_SHIFT
   Definitions
      At line 2136 in file MKL05Z4.s
   Uses
      None
Comment: SIM_SCGC6_ADC0_SHIFT unused
SIM_SCGC6_DAC0_MASK 80000000

Symbol: SIM_SCGC6_DAC0_MASK
   Definitions
      At line 2131 in file MKL05Z4.s
   Uses
      None
Comment: SIM_SCGC6_DAC0_MASK unused
SIM_SCGC6_DAC0_SHIFT 0000001F

Symbol: SIM_SCGC6_DAC0_SHIFT
   Definitions
      At line 2132 in file MKL05Z4.s
   Uses
      None
Comment: SIM_SCGC6_DAC0_SHIFT unused
SIM_SCGC6_DMAMUX_MASK 00000002

Symbol: SIM_SCGC6_DMAMUX_MASK
   Definitions
      At line 2143 in file MKL05Z4.s
   Uses
      None
Comment: SIM_SCGC6_DMAMUX_MASK unused
SIM_SCGC6_DMAMUX_SHIFT 00000001

Symbol: SIM_SCGC6_DMAMUX_SHIFT



ARM Macro Assembler    Page 157 Alphabetic symbol ordering
Absolute symbols

   Definitions
      At line 2144 in file MKL05Z4.s
   Uses
      None
Comment: SIM_SCGC6_DMAMUX_SHIFT unused
SIM_SCGC6_FTF_MASK 00000001

Symbol: SIM_SCGC6_FTF_MASK
   Definitions
      At line 2145 in file MKL05Z4.s
   Uses
      None
Comment: SIM_SCGC6_FTF_MASK unused
SIM_SCGC6_FTF_SHIFT 00000000

Symbol: SIM_SCGC6_FTF_SHIFT
   Definitions
      At line 2146 in file MKL05Z4.s
   Uses
      None
Comment: SIM_SCGC6_FTF_SHIFT unused
SIM_SCGC6_OFFSET 0000103C

Symbol: SIM_SCGC6_OFFSET
   Definitions
      At line 2001 in file MKL05Z4.s
   Uses
      At line 2017 in file MKL05Z4.s
Comment: SIM_SCGC6_OFFSET used once
SIM_SCGC6_PIT_MASK 00800000

Symbol: SIM_SCGC6_PIT_MASK
   Definitions
      At line 2141 in file MKL05Z4.s
   Uses
      At line 1197 in file Ex_12.s
Comment: SIM_SCGC6_PIT_MASK used once
SIM_SCGC6_PIT_SHIFT 00000017

Symbol: SIM_SCGC6_PIT_SHIFT
   Definitions
      At line 2142 in file MKL05Z4.s
   Uses
      None
Comment: SIM_SCGC6_PIT_SHIFT unused
SIM_SCGC6_RTC_MASK 20000000

Symbol: SIM_SCGC6_RTC_MASK
   Definitions
      At line 2133 in file MKL05Z4.s
   Uses
      None
Comment: SIM_SCGC6_RTC_MASK unused
SIM_SCGC6_RTC_SHIFT 0000001D

Symbol: SIM_SCGC6_RTC_SHIFT
   Definitions
      At line 2134 in file MKL05Z4.s
   Uses



ARM Macro Assembler    Page 158 Alphabetic symbol ordering
Absolute symbols

      None
Comment: SIM_SCGC6_RTC_SHIFT unused
SIM_SCGC6_TPM0_MASK 01000000

Symbol: SIM_SCGC6_TPM0_MASK
   Definitions
      At line 2139 in file MKL05Z4.s
   Uses
      None
Comment: SIM_SCGC6_TPM0_MASK unused
SIM_SCGC6_TPM0_SHIFT 00000018

Symbol: SIM_SCGC6_TPM0_SHIFT
   Definitions
      At line 2140 in file MKL05Z4.s
   Uses
      None
Comment: SIM_SCGC6_TPM0_SHIFT unused
SIM_SCGC6_TPM1_MASK 02000000

Symbol: SIM_SCGC6_TPM1_MASK
   Definitions
      At line 2137 in file MKL05Z4.s
   Uses
      None
Comment: SIM_SCGC6_TPM1_MASK unused
SIM_SCGC6_TPM1_SHIFT 00000019

Symbol: SIM_SCGC6_TPM1_SHIFT
   Definitions
      At line 2138 in file MKL05Z4.s
   Uses
      None
Comment: SIM_SCGC6_TPM1_SHIFT unused
SIM_SCGC7 40048040

Symbol: SIM_SCGC7
   Definitions
      At line 2018 in file MKL05Z4.s
   Uses
      None
Comment: SIM_SCGC7 unused
SIM_SCGC7_OFFSET 00001040

Symbol: SIM_SCGC7_OFFSET
   Definitions
      At line 2002 in file MKL05Z4.s
   Uses
      At line 2018 in file MKL05Z4.s
Comment: SIM_SCGC7_OFFSET used once
SIM_SDID 40048024

Symbol: SIM_SDID
   Definitions
      At line 2019 in file MKL05Z4.s
   Uses
      None
Comment: SIM_SDID unused
SIM_SDID_OFFSET 00001024



ARM Macro Assembler    Page 159 Alphabetic symbol ordering
Absolute symbols


Symbol: SIM_SDID_OFFSET
   Definitions
      At line 1998 in file MKL05Z4.s
   Uses
      At line 2019 in file MKL05Z4.s
Comment: SIM_SDID_OFFSET used once
SIM_SOPT1 40047000

Symbol: SIM_SOPT1
   Definitions
      At line 2020 in file MKL05Z4.s
   Uses
      None
Comment: SIM_SOPT1 unused
SIM_SOPT1CFG 40047004

Symbol: SIM_SOPT1CFG
   Definitions
      At line 2021 in file MKL05Z4.s
   Uses
      None
Comment: SIM_SOPT1CFG unused
SIM_SOPT1CFG_OFFSET 00000004

Symbol: SIM_SOPT1CFG_OFFSET
   Definitions
      At line 1993 in file MKL05Z4.s
   Uses
      At line 2021 in file MKL05Z4.s
Comment: SIM_SOPT1CFG_OFFSET used once
SIM_SOPT1_OFFSET 00000000

Symbol: SIM_SOPT1_OFFSET
   Definitions
      At line 1992 in file MKL05Z4.s
   Uses
      At line 2020 in file MKL05Z4.s
Comment: SIM_SOPT1_OFFSET used once
SIM_SOPT1_OSC32KSEL_MASK 000C0000

Symbol: SIM_SOPT1_OSC32KSEL_MASK
   Definitions
      At line 2161 in file MKL05Z4.s
   Uses
      None
Comment: SIM_SOPT1_OSC32KSEL_MASK unused
SIM_SOPT1_OSC32KSEL_SHIFT 00000012

Symbol: SIM_SOPT1_OSC32KSEL_SHIFT
   Definitions
      At line 2162 in file MKL05Z4.s
   Uses
      None
Comment: SIM_SOPT1_OSC32KSEL_SHIFT unused
SIM_SOPT2 40048004

Symbol: SIM_SOPT2
   Definitions



ARM Macro Assembler    Page 160 Alphabetic symbol ordering
Absolute symbols

      At line 2022 in file MKL05Z4.s
   Uses
      At line 1265 in file Ex_12.s
Comment: SIM_SOPT2 used once
SIM_SOPT2_CLKOUTSEL_MASK 000000E0

Symbol: SIM_SOPT2_CLKOUTSEL_MASK
   Definitions
      At line 2195 in file MKL05Z4.s
   Uses
      None
Comment: SIM_SOPT2_CLKOUTSEL_MASK unused
SIM_SOPT2_CLKOUTSEL_SHIFT 00000005

Symbol: SIM_SOPT2_CLKOUTSEL_SHIFT
   Definitions
      At line 2196 in file MKL05Z4.s
   Uses
      None
Comment: SIM_SOPT2_CLKOUTSEL_SHIFT unused
SIM_SOPT2_OFFSET 00001004

Symbol: SIM_SOPT2_OFFSET
   Definitions
      At line 1994 in file MKL05Z4.s
   Uses
      At line 2022 in file MKL05Z4.s
Comment: SIM_SOPT2_OFFSET used once
SIM_SOPT2_RTCCLKOUTSEL_MASK 00000010

Symbol: SIM_SOPT2_RTCCLKOUTSEL_MASK
   Definitions
      At line 2197 in file MKL05Z4.s
   Uses
      None
Comment: SIM_SOPT2_RTCCLKOUTSEL_MASK unused
SIM_SOPT2_RTCCLKOUTSEL_SHIFT 00000004

Symbol: SIM_SOPT2_RTCCLKOUTSEL_SHIFT
   Definitions
      At line 2198 in file MKL05Z4.s
   Uses
      None
Comment: SIM_SOPT2_RTCCLKOUTSEL_SHIFT unused
SIM_SOPT2_TPMSRC_MASK 03000000

Symbol: SIM_SOPT2_TPMSRC_MASK
   Definitions
      At line 2193 in file MKL05Z4.s
   Uses
      None
Comment: SIM_SOPT2_TPMSRC_MASK unused
SIM_SOPT2_TPMSRC_SHIFT 00000018

Symbol: SIM_SOPT2_TPMSRC_SHIFT
   Definitions
      At line 2194 in file MKL05Z4.s
   Uses
      None



ARM Macro Assembler    Page 161 Alphabetic symbol ordering
Absolute symbols

Comment: SIM_SOPT2_TPMSRC_SHIFT unused
SIM_SOPT2_UART0SRC_MASK 0C000000

Symbol: SIM_SOPT2_UART0SRC_MASK
   Definitions
      At line 2191 in file MKL05Z4.s
   Uses
      At line 1266 in file Ex_12.s
Comment: SIM_SOPT2_UART0SRC_MASK used once
SIM_SOPT2_UART0SRC_MCGFLLCLK 04000000

Symbol: SIM_SOPT2_UART0SRC_MCGFLLCLK
   Definitions
      At line 149 in file Ex_12.s
   Uses
      At line 1269 in file Ex_12.s
Comment: SIM_SOPT2_UART0SRC_MCGFLLCLK used once
SIM_SOPT2_UART0SRC_SHIFT 0000001A

Symbol: SIM_SOPT2_UART0SRC_SHIFT
   Definitions
      At line 2192 in file MKL05Z4.s
   Uses
      At line 149 in file Ex_12.s
Comment: SIM_SOPT2_UART0SRC_SHIFT used once
SIM_SOPT4 4004800C

Symbol: SIM_SOPT4
   Definitions
      At line 2023 in file MKL05Z4.s
   Uses
      None
Comment: SIM_SOPT4 unused
SIM_SOPT4_OFFSET 0000100C

Symbol: SIM_SOPT4_OFFSET
   Definitions
      At line 1995 in file MKL05Z4.s
   Uses
      At line 2023 in file MKL05Z4.s
Comment: SIM_SOPT4_OFFSET used once
SIM_SOPT5 40048010

Symbol: SIM_SOPT5
   Definitions
      At line 2024 in file MKL05Z4.s
   Uses
      At line 1274 in file Ex_12.s
Comment: SIM_SOPT5 used once
SIM_SOPT5_OFFSET 00001010

Symbol: SIM_SOPT5_OFFSET
   Definitions
      At line 1996 in file MKL05Z4.s
   Uses
      At line 2024 in file MKL05Z4.s
Comment: SIM_SOPT5_OFFSET used once
SIM_SOPT5_UART0ODE_MASK 00010000




ARM Macro Assembler    Page 162 Alphabetic symbol ordering
Absolute symbols

Symbol: SIM_SOPT5_UART0ODE_MASK
   Definitions
      At line 2224 in file MKL05Z4.s
   Uses
      At line 158 in file Ex_12.s
Comment: SIM_SOPT5_UART0ODE_MASK used once
SIM_SOPT5_UART0ODE_SHIFT 00000010

Symbol: SIM_SOPT5_UART0ODE_SHIFT
   Definitions
      At line 2225 in file MKL05Z4.s
   Uses
      None
Comment: SIM_SOPT5_UART0ODE_SHIFT unused
SIM_SOPT5_UART0RXSRC_MASK 00000004

Symbol: SIM_SOPT5_UART0RXSRC_MASK
   Definitions
      At line 2226 in file MKL05Z4.s
   Uses
      At line 158 in file Ex_12.s
Comment: SIM_SOPT5_UART0RXSRC_MASK used once
SIM_SOPT5_UART0RXSRC_SHIFT 00000002

Symbol: SIM_SOPT5_UART0RXSRC_SHIFT
   Definitions
      At line 2227 in file MKL05Z4.s
   Uses
      None
Comment: SIM_SOPT5_UART0RXSRC_SHIFT unused
SIM_SOPT5_UART0TXSRC_MASK 00000001

Symbol: SIM_SOPT5_UART0TXSRC_MASK
   Definitions
      At line 2228 in file MKL05Z4.s
   Uses
      At line 158 in file Ex_12.s
Comment: SIM_SOPT5_UART0TXSRC_MASK used once
SIM_SOPT5_UART0TXSRC_SHIFT 00000000

Symbol: SIM_SOPT5_UART0TXSRC_SHIFT
   Definitions
      At line 2229 in file MKL05Z4.s
   Uses
      None
Comment: SIM_SOPT5_UART0TXSRC_SHIFT unused
SIM_SOPT5_UART0_EXTERN_MASK_CLEAR 00010005

Symbol: SIM_SOPT5_UART0_EXTERN_MASK_CLEAR
   Definitions
      At line 158 in file Ex_12.s
   Uses
      At line 1275 in file Ex_12.s
Comment: SIM_SOPT5_UART0_EXTERN_MASK_CLEAR used once
SIM_SOPT7 40048018

Symbol: SIM_SOPT7
   Definitions
      At line 2025 in file MKL05Z4.s



ARM Macro Assembler    Page 163 Alphabetic symbol ordering
Absolute symbols

   Uses
      None
Comment: SIM_SOPT7 unused
SIM_SOPT7_OFFSET 00001018

Symbol: SIM_SOPT7_OFFSET
   Definitions
      At line 1997 in file MKL05Z4.s
   Uses
      At line 2025 in file MKL05Z4.s
Comment: SIM_SOPT7_OFFSET used once
SIM_SRVCOP 40048104

Symbol: SIM_SRVCOP
   Definitions
      At line 2026 in file MKL05Z4.s
   Uses
      None
Comment: SIM_SRVCOP unused
SIM_SRVCOP_OFFSET 00001104

Symbol: SIM_SRVCOP_OFFSET
   Definitions
      At line 2010 in file MKL05Z4.s
   Uses
      At line 2026 in file MKL05Z4.s
Comment: SIM_SRVCOP_OFFSET used once
SIM_UIDL 40048060

Symbol: SIM_UIDL
   Definitions
      At line 2027 in file MKL05Z4.s
   Uses
      None
Comment: SIM_UIDL unused
SIM_UIDL_OFFSET 00001060

Symbol: SIM_UIDL_OFFSET
   Definitions
      At line 2008 in file MKL05Z4.s
   Uses
      At line 2027 in file MKL05Z4.s
Comment: SIM_UIDL_OFFSET used once
SIM_UIDMH 40048058

Symbol: SIM_UIDMH
   Definitions
      At line 2028 in file MKL05Z4.s
   Uses
      None
Comment: SIM_UIDMH unused
SIM_UIDMH_OFFSET 00001058

Symbol: SIM_UIDMH_OFFSET
   Definitions
      At line 2006 in file MKL05Z4.s
   Uses
      At line 2028 in file MKL05Z4.s
Comment: SIM_UIDMH_OFFSET used once



ARM Macro Assembler    Page 164 Alphabetic symbol ordering
Absolute symbols

SIM_UIDML 4004805C

Symbol: SIM_UIDML
   Definitions
      At line 2029 in file MKL05Z4.s
   Uses
      None
Comment: SIM_UIDML unused
SIM_UIDML_OFFSET 0000105C

Symbol: SIM_UIDML_OFFSET
   Definitions
      At line 2007 in file MKL05Z4.s
   Uses
      At line 2029 in file MKL05Z4.s
Comment: SIM_UIDML_OFFSET used once
SPI0_IPR E000E408

Symbol: SPI0_IPR
   Definitions
      At line 1448 in file MKL05Z4.s
   Uses
      None
Comment: SPI0_IPR unused
SPI0_IRQ_MASK 00000400

Symbol: SPI0_IRQ_MASK
   Definitions
      At line 1518 in file MKL05Z4.s
   Uses
      None
Comment: SPI0_IRQ_MASK unused
SPI0_IRQn 0000000A

Symbol: SPI0_IRQn
   Definitions
      At line 167 in file MKL05Z4.s
   Uses
      At line 1518 in file MKL05Z4.s
Comment: SPI0_IRQn used once
SPI0_PRI_POS 00000016

Symbol: SPI0_PRI_POS
   Definitions
      At line 1484 in file MKL05Z4.s
   Uses
      None
Comment: SPI0_PRI_POS unused
SPI0_Vector 0000001A

Symbol: SPI0_Vector
   Definitions
      At line 1569 in file MKL05Z4.s
   Uses
      None
Comment: SPI0_Vector unused
SVCall_IRQn FFFFFFFB

Symbol: SVCall_IRQn



ARM Macro Assembler    Page 165 Alphabetic symbol ordering
Absolute symbols

   Definitions
      At line 151 in file MKL05Z4.s
   Uses
      None
Comment: SVCall_IRQn unused
SVCall_Vector 0000000B

Symbol: SVCall_Vector
   Definitions
      At line 1553 in file MKL05Z4.s
   Uses
      None
Comment: SVCall_Vector unused
SysTick_IRQn FFFFFFFF

Symbol: SysTick_IRQn
   Definitions
      At line 154 in file MKL05Z4.s
   Uses
      None
Comment: SysTick_IRQn unused
SysTick_Vector 0000000F

Symbol: SysTick_Vector
   Definitions
      At line 1558 in file MKL05Z4.s
   Uses
      None
Comment: SysTick_Vector unused
TPM0_BASE 40038000

Symbol: TPM0_BASE
   Definitions
      At line 2254 in file MKL05Z4.s
   Uses
      At line 2256 in file MKL05Z4.s
      At line 2257 in file MKL05Z4.s
      At line 2258 in file MKL05Z4.s
      At line 2259 in file MKL05Z4.s
      At line 2260 in file MKL05Z4.s
      At line 2261 in file MKL05Z4.s
      At line 2262 in file MKL05Z4.s
      At line 2263 in file MKL05Z4.s
      At line 2264 in file MKL05Z4.s
      At line 2265 in file MKL05Z4.s
      At line 2266 in file MKL05Z4.s
      At line 2267 in file MKL05Z4.s
      At line 2268 in file MKL05Z4.s
      At line 2269 in file MKL05Z4.s
      At line 2270 in file MKL05Z4.s
      At line 2273 in file MKL05Z4.s
      At line 2275 in file MKL05Z4.s

TPM0_C0SC 4003800C

Symbol: TPM0_C0SC
   Definitions
      At line 2259 in file MKL05Z4.s
   Uses



ARM Macro Assembler    Page 166 Alphabetic symbol ordering
Absolute symbols

      None
Comment: TPM0_C0SC unused
TPM0_C0V 40038010

Symbol: TPM0_C0V
   Definitions
      At line 2260 in file MKL05Z4.s
   Uses
      None
Comment: TPM0_C0V unused
TPM0_C1SC 40038014

Symbol: TPM0_C1SC
   Definitions
      At line 2261 in file MKL05Z4.s
   Uses
      None
Comment: TPM0_C1SC unused
TPM0_C1V 40038018

Symbol: TPM0_C1V
   Definitions
      At line 2262 in file MKL05Z4.s
   Uses
      None
Comment: TPM0_C1V unused
TPM0_C2SC 4003801C

Symbol: TPM0_C2SC
   Definitions
      At line 2263 in file MKL05Z4.s
   Uses
      None
Comment: TPM0_C2SC unused
TPM0_C2V 40038020

Symbol: TPM0_C2V
   Definitions
      At line 2264 in file MKL05Z4.s
   Uses
      None
Comment: TPM0_C2V unused
TPM0_C3SC 40038024

Symbol: TPM0_C3SC
   Definitions
      At line 2265 in file MKL05Z4.s
   Uses
      None
Comment: TPM0_C3SC unused
TPM0_C3V 40038028

Symbol: TPM0_C3V
   Definitions
      At line 2266 in file MKL05Z4.s
   Uses
      None
Comment: TPM0_C3V unused
TPM0_C4SC 4003802C



ARM Macro Assembler    Page 167 Alphabetic symbol ordering
Absolute symbols


Symbol: TPM0_C4SC
   Definitions
      At line 2267 in file MKL05Z4.s
   Uses
      None
Comment: TPM0_C4SC unused
TPM0_C4V 40038030

Symbol: TPM0_C4V
   Definitions
      At line 2268 in file MKL05Z4.s
   Uses
      None
Comment: TPM0_C4V unused
TPM0_C5SC 40038034

Symbol: TPM0_C5SC
   Definitions
      At line 2269 in file MKL05Z4.s
   Uses
      None
Comment: TPM0_C5SC unused
TPM0_C5V 40038038

Symbol: TPM0_C5V
   Definitions
      At line 2270 in file MKL05Z4.s
   Uses
      None
Comment: TPM0_C5V unused
TPM0_CNT 40038004

Symbol: TPM0_CNT
   Definitions
      At line 2257 in file MKL05Z4.s
   Uses
      None
Comment: TPM0_CNT unused
TPM0_CONF 40038084

Symbol: TPM0_CONF
   Definitions
      At line 2275 in file MKL05Z4.s
   Uses
      None
Comment: TPM0_CONF unused
TPM0_IPR E000E410

Symbol: TPM0_IPR
   Definitions
      At line 1455 in file MKL05Z4.s
   Uses
      None
Comment: TPM0_IPR unused
TPM0_IRQ_MASK 00020000

Symbol: TPM0_IRQ_MASK
   Definitions



ARM Macro Assembler    Page 168 Alphabetic symbol ordering
Absolute symbols

      At line 1525 in file MKL05Z4.s
   Uses
      None
Comment: TPM0_IRQ_MASK unused
TPM0_IRQn 00000011

Symbol: TPM0_IRQn
   Definitions
      At line 174 in file MKL05Z4.s
   Uses
      At line 1525 in file MKL05Z4.s
Comment: TPM0_IRQn used once
TPM0_MOD 40038008

Symbol: TPM0_MOD
   Definitions
      At line 2258 in file MKL05Z4.s
   Uses
      None
Comment: TPM0_MOD unused
TPM0_PRI_POS 0000000E

Symbol: TPM0_PRI_POS
   Definitions
      At line 1491 in file MKL05Z4.s
   Uses
      None
Comment: TPM0_PRI_POS unused
TPM0_SC 40038000

Symbol: TPM0_SC
   Definitions
      At line 2256 in file MKL05Z4.s
   Uses
      None
Comment: TPM0_SC unused
TPM0_STATUS 40038050

Symbol: TPM0_STATUS
   Definitions
      At line 2273 in file MKL05Z4.s
   Uses
      None
Comment: TPM0_STATUS unused
TPM0_Vector 00000021

Symbol: TPM0_Vector
   Definitions
      At line 1576 in file MKL05Z4.s
   Uses
      None
Comment: TPM0_Vector unused
TPM1_BASE 40039000

Symbol: TPM1_BASE
   Definitions
      At line 2278 in file MKL05Z4.s
   Uses
      At line 2279 in file MKL05Z4.s



ARM Macro Assembler    Page 169 Alphabetic symbol ordering
Absolute symbols

      At line 2280 in file MKL05Z4.s
      At line 2281 in file MKL05Z4.s
      At line 2282 in file MKL05Z4.s
      At line 2283 in file MKL05Z4.s
      At line 2284 in file MKL05Z4.s
      At line 2285 in file MKL05Z4.s
      At line 2286 in file MKL05Z4.s
      At line 2287 in file MKL05Z4.s
      At line 2288 in file MKL05Z4.s
      At line 2289 in file MKL05Z4.s
      At line 2290 in file MKL05Z4.s
      At line 2291 in file MKL05Z4.s
      At line 2292 in file MKL05Z4.s
      At line 2293 in file MKL05Z4.s
      At line 2296 in file MKL05Z4.s
      At line 2298 in file MKL05Z4.s

TPM1_C0SC 4003900C

Symbol: TPM1_C0SC
   Definitions
      At line 2282 in file MKL05Z4.s
   Uses
      None
Comment: TPM1_C0SC unused
TPM1_C0V 40039010

Symbol: TPM1_C0V
   Definitions
      At line 2283 in file MKL05Z4.s
   Uses
      None
Comment: TPM1_C0V unused
TPM1_C1SC 40039014

Symbol: TPM1_C1SC
   Definitions
      At line 2284 in file MKL05Z4.s
   Uses
      None
Comment: TPM1_C1SC unused
TPM1_C1V 40039018

Symbol: TPM1_C1V
   Definitions
      At line 2285 in file MKL05Z4.s
   Uses
      None
Comment: TPM1_C1V unused
TPM1_C2SC 4003901C

Symbol: TPM1_C2SC
   Definitions
      At line 2286 in file MKL05Z4.s
   Uses
      None
Comment: TPM1_C2SC unused
TPM1_C2V 40039020




ARM Macro Assembler    Page 170 Alphabetic symbol ordering
Absolute symbols

Symbol: TPM1_C2V
   Definitions
      At line 2287 in file MKL05Z4.s
   Uses
      None
Comment: TPM1_C2V unused
TPM1_C3SC 40039024

Symbol: TPM1_C3SC
   Definitions
      At line 2288 in file MKL05Z4.s
   Uses
      None
Comment: TPM1_C3SC unused
TPM1_C3V 40039028

Symbol: TPM1_C3V
   Definitions
      At line 2289 in file MKL05Z4.s
   Uses
      None
Comment: TPM1_C3V unused
TPM1_C4SC 4003902C

Symbol: TPM1_C4SC
   Definitions
      At line 2290 in file MKL05Z4.s
   Uses
      None
Comment: TPM1_C4SC unused
TPM1_C4V 40039030

Symbol: TPM1_C4V
   Definitions
      At line 2291 in file MKL05Z4.s
   Uses
      None
Comment: TPM1_C4V unused
TPM1_C5SC 40039034

Symbol: TPM1_C5SC
   Definitions
      At line 2292 in file MKL05Z4.s
   Uses
      None
Comment: TPM1_C5SC unused
TPM1_C5V 40039038

Symbol: TPM1_C5V
   Definitions
      At line 2293 in file MKL05Z4.s
   Uses
      None
Comment: TPM1_C5V unused
TPM1_CNT 40039004

Symbol: TPM1_CNT
   Definitions
      At line 2280 in file MKL05Z4.s



ARM Macro Assembler    Page 171 Alphabetic symbol ordering
Absolute symbols

   Uses
      None
Comment: TPM1_CNT unused
TPM1_CONF 40039084

Symbol: TPM1_CONF
   Definitions
      At line 2298 in file MKL05Z4.s
   Uses
      None
Comment: TPM1_CONF unused
TPM1_IPR E000E410

Symbol: TPM1_IPR
   Definitions
      At line 1456 in file MKL05Z4.s
   Uses
      None
Comment: TPM1_IPR unused
TPM1_IRQ_MASK 00040000

Symbol: TPM1_IRQ_MASK
   Definitions
      At line 1526 in file MKL05Z4.s
   Uses
      None
Comment: TPM1_IRQ_MASK unused
TPM1_IRQn 00000012

Symbol: TPM1_IRQn
   Definitions
      At line 175 in file MKL05Z4.s
   Uses
      At line 1526 in file MKL05Z4.s
Comment: TPM1_IRQn used once
TPM1_MOD 40039008

Symbol: TPM1_MOD
   Definitions
      At line 2281 in file MKL05Z4.s
   Uses
      None
Comment: TPM1_MOD unused
TPM1_PRI_POS 00000016

Symbol: TPM1_PRI_POS
   Definitions
      At line 1492 in file MKL05Z4.s
   Uses
      None
Comment: TPM1_PRI_POS unused
TPM1_SC 40039000

Symbol: TPM1_SC
   Definitions
      At line 2279 in file MKL05Z4.s
   Uses
      None
Comment: TPM1_SC unused



ARM Macro Assembler    Page 172 Alphabetic symbol ordering
Absolute symbols

TPM1_STATUS 40039050

Symbol: TPM1_STATUS
   Definitions
      At line 2296 in file MKL05Z4.s
   Uses
      None
Comment: TPM1_STATUS unused
TPM1_Vector 00000022

Symbol: TPM1_Vector
   Definitions
      At line 1577 in file MKL05Z4.s
   Uses
      None
Comment: TPM1_Vector unused
TPM_C0SC_OFFSET 0000000C

Symbol: TPM_C0SC_OFFSET
   Definitions
      At line 2235 in file MKL05Z4.s
   Uses
      At line 2259 in file MKL05Z4.s
      At line 2282 in file MKL05Z4.s

TPM_C0V_OFFSET 00000010

Symbol: TPM_C0V_OFFSET
   Definitions
      At line 2236 in file MKL05Z4.s
   Uses
      At line 2260 in file MKL05Z4.s
      At line 2283 in file MKL05Z4.s

TPM_C1SC_OFFSET 00000014

Symbol: TPM_C1SC_OFFSET
   Definitions
      At line 2237 in file MKL05Z4.s
   Uses
      At line 2261 in file MKL05Z4.s
      At line 2284 in file MKL05Z4.s

TPM_C1V_OFFSET 00000018

Symbol: TPM_C1V_OFFSET
   Definitions
      At line 2238 in file MKL05Z4.s
   Uses
      At line 2262 in file MKL05Z4.s
      At line 2285 in file MKL05Z4.s

TPM_C2SC_OFFSET 0000001C

Symbol: TPM_C2SC_OFFSET
   Definitions
      At line 2239 in file MKL05Z4.s
   Uses
      At line 2263 in file MKL05Z4.s



ARM Macro Assembler    Page 173 Alphabetic symbol ordering
Absolute symbols

      At line 2286 in file MKL05Z4.s

TPM_C2V_OFFSET 00000020

Symbol: TPM_C2V_OFFSET
   Definitions
      At line 2240 in file MKL05Z4.s
   Uses
      At line 2264 in file MKL05Z4.s
      At line 2287 in file MKL05Z4.s

TPM_C3SC_OFFSET 00000024

Symbol: TPM_C3SC_OFFSET
   Definitions
      At line 2241 in file MKL05Z4.s
   Uses
      At line 2265 in file MKL05Z4.s
      At line 2288 in file MKL05Z4.s

TPM_C3V_OFFSET 00000028

Symbol: TPM_C3V_OFFSET
   Definitions
      At line 2242 in file MKL05Z4.s
   Uses
      At line 2266 in file MKL05Z4.s
      At line 2289 in file MKL05Z4.s

TPM_C4SC_OFFSET 0000002C

Symbol: TPM_C4SC_OFFSET
   Definitions
      At line 2243 in file MKL05Z4.s
   Uses
      At line 2267 in file MKL05Z4.s
      At line 2290 in file MKL05Z4.s

TPM_C4V_OFFSET 00000030

Symbol: TPM_C4V_OFFSET
   Definitions
      At line 2244 in file MKL05Z4.s
   Uses
      At line 2268 in file MKL05Z4.s
      At line 2291 in file MKL05Z4.s

TPM_C5SC_OFFSET 00000034

Symbol: TPM_C5SC_OFFSET
   Definitions
      At line 2245 in file MKL05Z4.s
   Uses
      At line 2269 in file MKL05Z4.s
      At line 2292 in file MKL05Z4.s

TPM_C5V_OFFSET 00000038

Symbol: TPM_C5V_OFFSET



ARM Macro Assembler    Page 174 Alphabetic symbol ordering
Absolute symbols

   Definitions
      At line 2246 in file MKL05Z4.s
   Uses
      At line 2270 in file MKL05Z4.s
      At line 2293 in file MKL05Z4.s

TPM_CNT_OFFSET 00000004

Symbol: TPM_CNT_OFFSET
   Definitions
      At line 2233 in file MKL05Z4.s
   Uses
      At line 2257 in file MKL05Z4.s
      At line 2280 in file MKL05Z4.s

TPM_CONF_CROT_MASK 00040000

Symbol: TPM_CONF_CROT_MASK
   Definitions
      At line 2391 in file MKL05Z4.s
   Uses
      None
Comment: TPM_CONF_CROT_MASK unused
TPM_CONF_CROT_SHIFT 00000012

Symbol: TPM_CONF_CROT_SHIFT
   Definitions
      At line 2392 in file MKL05Z4.s
   Uses
      None
Comment: TPM_CONF_CROT_SHIFT unused
TPM_CONF_CSOO_MASK 00020000

Symbol: TPM_CONF_CSOO_MASK
   Definitions
      At line 2393 in file MKL05Z4.s
   Uses
      None
Comment: TPM_CONF_CSOO_MASK unused
TPM_CONF_CSOO_SHIFT 00000011

Symbol: TPM_CONF_CSOO_SHIFT
   Definitions
      At line 2394 in file MKL05Z4.s
   Uses
      None
Comment: TPM_CONF_CSOO_SHIFT unused
TPM_CONF_CSOT_MASK 00010000

Symbol: TPM_CONF_CSOT_MASK
   Definitions
      At line 2395 in file MKL05Z4.s
   Uses
      None
Comment: TPM_CONF_CSOT_MASK unused
TPM_CONF_CSOT_SHIFT 00000010

Symbol: TPM_CONF_CSOT_SHIFT
   Definitions



ARM Macro Assembler    Page 175 Alphabetic symbol ordering
Absolute symbols

      At line 2396 in file MKL05Z4.s
   Uses
      None
Comment: TPM_CONF_CSOT_SHIFT unused
TPM_CONF_DBGMODE_MASK 000000C0

Symbol: TPM_CONF_DBGMODE_MASK
   Definitions
      At line 2399 in file MKL05Z4.s
   Uses
      None
Comment: TPM_CONF_DBGMODE_MASK unused
TPM_CONF_DBGMODE_SHIFT 00000006

Symbol: TPM_CONF_DBGMODE_SHIFT
   Definitions
      At line 2400 in file MKL05Z4.s
   Uses
      None
Comment: TPM_CONF_DBGMODE_SHIFT unused
TPM_CONF_DOZEEN_MASK 00000020

Symbol: TPM_CONF_DOZEEN_MASK
   Definitions
      At line 2401 in file MKL05Z4.s
   Uses
      None
Comment: TPM_CONF_DOZEEN_MASK unused
TPM_CONF_DOZEEN_SHIFT 00000005

Symbol: TPM_CONF_DOZEEN_SHIFT
   Definitions
      At line 2402 in file MKL05Z4.s
   Uses
      None
Comment: TPM_CONF_DOZEEN_SHIFT unused
TPM_CONF_GTBEEN_MASK 00000200

Symbol: TPM_CONF_GTBEEN_MASK
   Definitions
      At line 2397 in file MKL05Z4.s
   Uses
      None
Comment: TPM_CONF_GTBEEN_MASK unused
TPM_CONF_GTBEEN_SHIFT 00000009

Symbol: TPM_CONF_GTBEEN_SHIFT
   Definitions
      At line 2398 in file MKL05Z4.s
   Uses
      None
Comment: TPM_CONF_GTBEEN_SHIFT unused
TPM_CONF_OFFSET 00000084

Symbol: TPM_CONF_OFFSET
   Definitions
      At line 2251 in file MKL05Z4.s
   Uses
      At line 2275 in file MKL05Z4.s



ARM Macro Assembler    Page 176 Alphabetic symbol ordering
Absolute symbols

      At line 2298 in file MKL05Z4.s

TPM_CONF_TRGSEL_MASK 0F000000

Symbol: TPM_CONF_TRGSEL_MASK
   Definitions
      At line 2389 in file MKL05Z4.s
   Uses
      None
Comment: TPM_CONF_TRGSEL_MASK unused
TPM_CONF_TRGSEL_SHIFT 00000018

Symbol: TPM_CONF_TRGSEL_SHIFT
   Definitions
      At line 2390 in file MKL05Z4.s
   Uses
      None
Comment: TPM_CONF_TRGSEL_SHIFT unused
TPM_CnSC_CDMA_MASK 00000001

Symbol: TPM_CnSC_CDMA_MASK
   Definitions
      At line 2339 in file MKL05Z4.s
   Uses
      None
Comment: TPM_CnSC_CDMA_MASK unused
TPM_CnSC_CDMA_SHIFT 00000000

Symbol: TPM_CnSC_CDMA_SHIFT
   Definitions
      At line 2340 in file MKL05Z4.s
   Uses
      None
Comment: TPM_CnSC_CDMA_SHIFT unused
TPM_CnSC_CHF_MASK 00000080

Symbol: TPM_CnSC_CHF_MASK
   Definitions
      At line 2327 in file MKL05Z4.s
   Uses
      None
Comment: TPM_CnSC_CHF_MASK unused
TPM_CnSC_CHF_SHIFT 00000007

Symbol: TPM_CnSC_CHF_SHIFT
   Definitions
      At line 2328 in file MKL05Z4.s
   Uses
      None
Comment: TPM_CnSC_CHF_SHIFT unused
TPM_CnSC_CHIE_MASK 00000040

Symbol: TPM_CnSC_CHIE_MASK
   Definitions
      At line 2329 in file MKL05Z4.s
   Uses
      None
Comment: TPM_CnSC_CHIE_MASK unused
TPM_CnSC_CHIE_SHIFT 00000006



ARM Macro Assembler    Page 177 Alphabetic symbol ordering
Absolute symbols


Symbol: TPM_CnSC_CHIE_SHIFT
   Definitions
      At line 2330 in file MKL05Z4.s
   Uses
      None
Comment: TPM_CnSC_CHIE_SHIFT unused
TPM_CnSC_ELSA_MASK 00000004

Symbol: TPM_CnSC_ELSA_MASK
   Definitions
      At line 2337 in file MKL05Z4.s
   Uses
      None
Comment: TPM_CnSC_ELSA_MASK unused
TPM_CnSC_ELSA_SHIFT 00000002

Symbol: TPM_CnSC_ELSA_SHIFT
   Definitions
      At line 2338 in file MKL05Z4.s
   Uses
      None
Comment: TPM_CnSC_ELSA_SHIFT unused
TPM_CnSC_ELSB_MASK 00000008

Symbol: TPM_CnSC_ELSB_MASK
   Definitions
      At line 2335 in file MKL05Z4.s
   Uses
      None
Comment: TPM_CnSC_ELSB_MASK unused
TPM_CnSC_ELSB_SHIFT 00000003

Symbol: TPM_CnSC_ELSB_SHIFT
   Definitions
      At line 2336 in file MKL05Z4.s
   Uses
      None
Comment: TPM_CnSC_ELSB_SHIFT unused
TPM_CnSC_MSA_MASK 00000010

Symbol: TPM_CnSC_MSA_MASK
   Definitions
      At line 2333 in file MKL05Z4.s
   Uses
      None
Comment: TPM_CnSC_MSA_MASK unused
TPM_CnSC_MSA_SHIFT 00000004

Symbol: TPM_CnSC_MSA_SHIFT
   Definitions
      At line 2334 in file MKL05Z4.s
   Uses
      None
Comment: TPM_CnSC_MSA_SHIFT unused
TPM_CnSC_MSB_MASK 00000020

Symbol: TPM_CnSC_MSB_MASK
   Definitions



ARM Macro Assembler    Page 178 Alphabetic symbol ordering
Absolute symbols

      At line 2331 in file MKL05Z4.s
   Uses
      None
Comment: TPM_CnSC_MSB_MASK unused
TPM_CnSC_MSB_SHIFT 00000005

Symbol: TPM_CnSC_MSB_SHIFT
   Definitions
      At line 2332 in file MKL05Z4.s
   Uses
      None
Comment: TPM_CnSC_MSB_SHIFT unused
TPM_CnV_VAL_MASK 0000FFFF

Symbol: TPM_CnV_VAL_MASK
   Definitions
      At line 2345 in file MKL05Z4.s
   Uses
      None
Comment: TPM_CnV_VAL_MASK unused
TPM_CnV_VAL_SHIFT 00000000

Symbol: TPM_CnV_VAL_SHIFT
   Definitions
      At line 2346 in file MKL05Z4.s
   Uses
      None
Comment: TPM_CnV_VAL_SHIFT unused
TPM_MOD_MOD_MASK 0000FFFF

Symbol: TPM_MOD_MOD_MASK
   Definitions
      At line 2407 in file MKL05Z4.s
   Uses
      None
Comment: TPM_MOD_MOD_MASK unused
TPM_MOD_MOD_SHIFT 00000000

Symbol: TPM_MOD_MOD_SHIFT
   Definitions
      At line 2408 in file MKL05Z4.s
   Uses
      None
Comment: TPM_MOD_MOD_SHIFT unused
TPM_MOD_OFFSET 00000008

Symbol: TPM_MOD_OFFSET
   Definitions
      At line 2234 in file MKL05Z4.s
   Uses
      At line 2258 in file MKL05Z4.s
      At line 2281 in file MKL05Z4.s

TPM_SC_CMOD_MASK 00000018

Symbol: TPM_SC_CMOD_MASK
   Definitions
      At line 2436 in file MKL05Z4.s
   Uses



ARM Macro Assembler    Page 179 Alphabetic symbol ordering
Absolute symbols

      None
Comment: TPM_SC_CMOD_MASK unused
TPM_SC_CMOD_SHIFT 00000003

Symbol: TPM_SC_CMOD_SHIFT
   Definitions
      At line 2437 in file MKL05Z4.s
   Uses
      None
Comment: TPM_SC_CMOD_SHIFT unused
TPM_SC_CPWMS_MASK 00000020

Symbol: TPM_SC_CPWMS_MASK
   Definitions
      At line 2434 in file MKL05Z4.s
   Uses
      None
Comment: TPM_SC_CPWMS_MASK unused
TPM_SC_CPWMS_SHIFT 00000005

Symbol: TPM_SC_CPWMS_SHIFT
   Definitions
      At line 2435 in file MKL05Z4.s
   Uses
      None
Comment: TPM_SC_CPWMS_SHIFT unused
TPM_SC_DMA_MASK 00000100

Symbol: TPM_SC_DMA_MASK
   Definitions
      At line 2428 in file MKL05Z4.s
   Uses
      None
Comment: TPM_SC_DMA_MASK unused
TPM_SC_DMA_SHIFT 00000008

Symbol: TPM_SC_DMA_SHIFT
   Definitions
      At line 2429 in file MKL05Z4.s
   Uses
      None
Comment: TPM_SC_DMA_SHIFT unused
TPM_SC_OFFSET 00000000

Symbol: TPM_SC_OFFSET
   Definitions
      At line 2232 in file MKL05Z4.s
   Uses
      At line 2256 in file MKL05Z4.s
      At line 2279 in file MKL05Z4.s

TPM_SC_PS_MASK 00000007

Symbol: TPM_SC_PS_MASK
   Definitions
      At line 2438 in file MKL05Z4.s
   Uses
      None
Comment: TPM_SC_PS_MASK unused



ARM Macro Assembler    Page 180 Alphabetic symbol ordering
Absolute symbols

TPM_SC_PS_SHIFT 00000000

Symbol: TPM_SC_PS_SHIFT
   Definitions
      At line 2439 in file MKL05Z4.s
   Uses
      None
Comment: TPM_SC_PS_SHIFT unused
TPM_SC_TOF_MASK 00000080

Symbol: TPM_SC_TOF_MASK
   Definitions
      At line 2430 in file MKL05Z4.s
   Uses
      None
Comment: TPM_SC_TOF_MASK unused
TPM_SC_TOF_SHIFT 00000007

Symbol: TPM_SC_TOF_SHIFT
   Definitions
      At line 2431 in file MKL05Z4.s
   Uses
      None
Comment: TPM_SC_TOF_SHIFT unused
TPM_SC_TOIE_MASK 00000040

Symbol: TPM_SC_TOIE_MASK
   Definitions
      At line 2432 in file MKL05Z4.s
   Uses
      None
Comment: TPM_SC_TOIE_MASK unused
TPM_SC_TOIE_SHIFT 00000006

Symbol: TPM_SC_TOIE_SHIFT
   Definitions
      At line 2433 in file MKL05Z4.s
   Uses
      None
Comment: TPM_SC_TOIE_SHIFT unused
TPM_STATUS_CH0F_MASK 00000001

Symbol: TPM_STATUS_CH0F_MASK
   Definitions
      At line 2463 in file MKL05Z4.s
   Uses
      None
Comment: TPM_STATUS_CH0F_MASK unused
TPM_STATUS_CH0F_SHIFT 00000000

Symbol: TPM_STATUS_CH0F_SHIFT
   Definitions
      At line 2464 in file MKL05Z4.s
   Uses
      None
Comment: TPM_STATUS_CH0F_SHIFT unused
TPM_STATUS_CH1F_MASK 00000002

Symbol: TPM_STATUS_CH1F_MASK



ARM Macro Assembler    Page 181 Alphabetic symbol ordering
Absolute symbols

   Definitions
      At line 2461 in file MKL05Z4.s
   Uses
      None
Comment: TPM_STATUS_CH1F_MASK unused
TPM_STATUS_CH1F_SHIFT 00000001

Symbol: TPM_STATUS_CH1F_SHIFT
   Definitions
      At line 2462 in file MKL05Z4.s
   Uses
      None
Comment: TPM_STATUS_CH1F_SHIFT unused
TPM_STATUS_CH2F_MASK 00000004

Symbol: TPM_STATUS_CH2F_MASK
   Definitions
      At line 2459 in file MKL05Z4.s
   Uses
      None
Comment: TPM_STATUS_CH2F_MASK unused
TPM_STATUS_CH2F_SHIFT 00000002

Symbol: TPM_STATUS_CH2F_SHIFT
   Definitions
      At line 2460 in file MKL05Z4.s
   Uses
      None
Comment: TPM_STATUS_CH2F_SHIFT unused
TPM_STATUS_CH3F_MASK 00000008

Symbol: TPM_STATUS_CH3F_MASK
   Definitions
      At line 2457 in file MKL05Z4.s
   Uses
      None
Comment: TPM_STATUS_CH3F_MASK unused
TPM_STATUS_CH3F_SHIFT 00000003

Symbol: TPM_STATUS_CH3F_SHIFT
   Definitions
      At line 2458 in file MKL05Z4.s
   Uses
      None
Comment: TPM_STATUS_CH3F_SHIFT unused
TPM_STATUS_CH4F_MASK 00000010

Symbol: TPM_STATUS_CH4F_MASK
   Definitions
      At line 2455 in file MKL05Z4.s
   Uses
      None
Comment: TPM_STATUS_CH4F_MASK unused
TPM_STATUS_CH4F_SHIFT 00000004

Symbol: TPM_STATUS_CH4F_SHIFT
   Definitions
      At line 2456 in file MKL05Z4.s
   Uses



ARM Macro Assembler    Page 182 Alphabetic symbol ordering
Absolute symbols

      None
Comment: TPM_STATUS_CH4F_SHIFT unused
TPM_STATUS_CH5F_MASK 00000020

Symbol: TPM_STATUS_CH5F_MASK
   Definitions
      At line 2453 in file MKL05Z4.s
   Uses
      None
Comment: TPM_STATUS_CH5F_MASK unused
TPM_STATUS_CH5F_SHIFT 00000005

Symbol: TPM_STATUS_CH5F_SHIFT
   Definitions
      At line 2454 in file MKL05Z4.s
   Uses
      None
Comment: TPM_STATUS_CH5F_SHIFT unused
TPM_STATUS_OFFSET 00000050

Symbol: TPM_STATUS_OFFSET
   Definitions
      At line 2249 in file MKL05Z4.s
   Uses
      At line 2273 in file MKL05Z4.s
      At line 2296 in file MKL05Z4.s

TPM_STATUS_TOF_MASK 00000100

Symbol: TPM_STATUS_TOF_MASK
   Definitions
      At line 2451 in file MKL05Z4.s
   Uses
      None
Comment: TPM_STATUS_TOF_MASK unused
TPM_STATUS_TOF_SHIFT 00000008

Symbol: TPM_STATUS_TOF_SHIFT
   Definitions
      At line 2452 in file MKL05Z4.s
   Uses
      None
Comment: TPM_STATUS_TOF_SHIFT unused
TSI0_IPR E000E418

Symbol: TSI0_IPR
   Definitions
      At line 1464 in file MKL05Z4.s
   Uses
      None
Comment: TSI0_IPR unused
TSI0_IRQ_MASK 04000000

Symbol: TSI0_IRQ_MASK
   Definitions
      At line 1534 in file MKL05Z4.s
   Uses
      None
Comment: TSI0_IRQ_MASK unused



ARM Macro Assembler    Page 183 Alphabetic symbol ordering
Absolute symbols

TSI0_IRQn 0000001A

Symbol: TSI0_IRQn
   Definitions
      At line 183 in file MKL05Z4.s
   Uses
      At line 1534 in file MKL05Z4.s
Comment: TSI0_IRQn used once
TSI0_PRI_POS 00000016

Symbol: TSI0_PRI_POS
   Definitions
      At line 1500 in file MKL05Z4.s
   Uses
      None
Comment: TSI0_PRI_POS unused
TSI0_Vector 0000002A

Symbol: TSI0_Vector
   Definitions
      At line 1585 in file MKL05Z4.s
   Uses
      None
Comment: TSI0_Vector unused
T_ascii 00000054

Symbol: T_ascii
   Definitions
      At line 42 in file Ex_12.s
   Uses
      None
Comment: T_ascii unused
Tx_Q_BUF 00000050

Symbol: Tx_Q_BUF
   Definitions
      At line 47 in file Ex_12.s
   Uses
      At line 1261 in file Ex_12.s
      At line 1626 in file Ex_12.s

Tx_Q_REC 00000012

Symbol: Tx_Q_REC
   Definitions
      At line 45 in file Ex_12.s
   Uses
      At line 1628 in file Ex_12.s
Comment: Tx_Q_REC used once
UART0_BASE 4006A000

Symbol: UART0_BASE
   Definitions
      At line 2467 in file MKL05Z4.s
   Uses
      At line 2481 in file MKL05Z4.s
      At line 2482 in file MKL05Z4.s
      At line 2483 in file MKL05Z4.s
      At line 2484 in file MKL05Z4.s



ARM Macro Assembler    Page 184 Alphabetic symbol ordering
Absolute symbols

      At line 2485 in file MKL05Z4.s
      At line 2486 in file MKL05Z4.s
      At line 2487 in file MKL05Z4.s
      At line 2488 in file MKL05Z4.s
      At line 2489 in file MKL05Z4.s
      At line 2490 in file MKL05Z4.s
      At line 2491 in file MKL05Z4.s
      At line 2492 in file MKL05Z4.s
      At line 1093 in file Ex_12.s
      At line 1305 in file Ex_12.s
      At line 1331 in file Ex_12.s
      At line 1351 in file Ex_12.s

UART0_BDH 4006A000

Symbol: UART0_BDH
   Definitions
      At line 2481 in file MKL05Z4.s
   Uses
      None
Comment: UART0_BDH unused
UART0_BDH_9600 00000001

Symbol: UART0_BDH_9600
   Definitions
      At line 169 in file Ex_12.s
   Uses
      At line 1332 in file Ex_12.s
Comment: UART0_BDH_9600 used once
UART0_BDH_LBKDIE_MASK 00000080

Symbol: UART0_BDH_LBKDIE_MASK
   Definitions
      At line 2499 in file MKL05Z4.s
   Uses
      None
Comment: UART0_BDH_LBKDIE_MASK unused
UART0_BDH_LBKDIE_SHIFT 00000007

Symbol: UART0_BDH_LBKDIE_SHIFT
   Definitions
      At line 2500 in file MKL05Z4.s
   Uses
      None
Comment: UART0_BDH_LBKDIE_SHIFT unused
UART0_BDH_OFFSET 00000000

Symbol: UART0_BDH_OFFSET
   Definitions
      At line 2469 in file MKL05Z4.s
   Uses
      At line 2481 in file MKL05Z4.s
      At line 1333 in file Ex_12.s

UART0_BDH_RXEDGIE_MASK 00000040

Symbol: UART0_BDH_RXEDGIE_MASK
   Definitions
      At line 2501 in file MKL05Z4.s



ARM Macro Assembler    Page 185 Alphabetic symbol ordering
Absolute symbols

   Uses
      None
Comment: UART0_BDH_RXEDGIE_MASK unused
UART0_BDH_RXEDGIE_SHIFT 00000006

Symbol: UART0_BDH_RXEDGIE_SHIFT
   Definitions
      At line 2502 in file MKL05Z4.s
   Uses
      None
Comment: UART0_BDH_RXEDGIE_SHIFT unused
UART0_BDH_SBNS_MASK 00000020

Symbol: UART0_BDH_SBNS_MASK
   Definitions
      At line 2503 in file MKL05Z4.s
   Uses
      None
Comment: UART0_BDH_SBNS_MASK unused
UART0_BDH_SBNS_SHIFT 00000005

Symbol: UART0_BDH_SBNS_SHIFT
   Definitions
      At line 2504 in file MKL05Z4.s
   Uses
      None
Comment: UART0_BDH_SBNS_SHIFT unused
UART0_BDH_SBR_MASK 0000001F

Symbol: UART0_BDH_SBR_MASK
   Definitions
      At line 2505 in file MKL05Z4.s
   Uses
      None
Comment: UART0_BDH_SBR_MASK unused
UART0_BDH_SBR_SHIFT 00000000

Symbol: UART0_BDH_SBR_SHIFT
   Definitions
      At line 2506 in file MKL05Z4.s
   Uses
      None
Comment: UART0_BDH_SBR_SHIFT unused
UART0_BDL 4006A001

Symbol: UART0_BDL
   Definitions
      At line 2482 in file MKL05Z4.s
   Uses
      None
Comment: UART0_BDL unused
UART0_BDL_9600 00000038

Symbol: UART0_BDL_9600
   Definitions
      At line 177 in file Ex_12.s
   Uses
      At line 1334 in file Ex_12.s
Comment: UART0_BDL_9600 used once



ARM Macro Assembler    Page 186 Alphabetic symbol ordering
Absolute symbols

UART0_BDL_OFFSET 00000001

Symbol: UART0_BDL_OFFSET
   Definitions
      At line 2470 in file MKL05Z4.s
   Uses
      At line 2482 in file MKL05Z4.s
      At line 1335 in file Ex_12.s

UART0_BDL_SBR_MASK 000000FF

Symbol: UART0_BDL_SBR_MASK
   Definitions
      At line 2510 in file MKL05Z4.s
   Uses
      None
Comment: UART0_BDL_SBR_MASK unused
UART0_BDL_SBR_SHIFT 00000000

Symbol: UART0_BDL_SBR_SHIFT
   Definitions
      At line 2511 in file MKL05Z4.s
   Uses
      None
Comment: UART0_BDL_SBR_SHIFT unused
UART0_C1 4006A002

Symbol: UART0_C1
   Definitions
      At line 2483 in file MKL05Z4.s
   Uses
      None
Comment: UART0_C1 unused
UART0_C1_8N1 00000000

Symbol: UART0_C1_8N1
   Definitions
      At line 189 in file Ex_12.s
   Uses
      At line 1336 in file Ex_12.s
Comment: UART0_C1_8N1 used once
UART0_C1_DOZEEN_MASK 00000040

Symbol: UART0_C1_DOZEEN_MASK
   Definitions
      At line 2524 in file MKL05Z4.s
   Uses
      None
Comment: UART0_C1_DOZEEN_MASK unused
UART0_C1_DOZEEN_SHIFT 00000006

Symbol: UART0_C1_DOZEEN_SHIFT
   Definitions
      At line 2525 in file MKL05Z4.s
   Uses
      None
Comment: UART0_C1_DOZEEN_SHIFT unused
UART0_C1_ILT_MASK 00000004




ARM Macro Assembler    Page 187 Alphabetic symbol ordering
Absolute symbols

Symbol: UART0_C1_ILT_MASK
   Definitions
      At line 2532 in file MKL05Z4.s
   Uses
      None
Comment: UART0_C1_ILT_MASK unused
UART0_C1_ILT_SHIFT 00000002

Symbol: UART0_C1_ILT_SHIFT
   Definitions
      At line 2533 in file MKL05Z4.s
   Uses
      None
Comment: UART0_C1_ILT_SHIFT unused
UART0_C1_LOOPS_MASK 00000080

Symbol: UART0_C1_LOOPS_MASK
   Definitions
      At line 2522 in file MKL05Z4.s
   Uses
      None
Comment: UART0_C1_LOOPS_MASK unused
UART0_C1_LOOPS_SHIFT 00000007

Symbol: UART0_C1_LOOPS_SHIFT
   Definitions
      At line 2523 in file MKL05Z4.s
   Uses
      None
Comment: UART0_C1_LOOPS_SHIFT unused
UART0_C1_M_MASK 00000010

Symbol: UART0_C1_M_MASK
   Definitions
      At line 2528 in file MKL05Z4.s
   Uses
      None
Comment: UART0_C1_M_MASK unused
UART0_C1_M_SHIFT 00000004

Symbol: UART0_C1_M_SHIFT
   Definitions
      At line 2529 in file MKL05Z4.s
   Uses
      None
Comment: UART0_C1_M_SHIFT unused
UART0_C1_OFFSET 00000002

Symbol: UART0_C1_OFFSET
   Definitions
      At line 2471 in file MKL05Z4.s
   Uses
      At line 2483 in file MKL05Z4.s
      At line 1337 in file Ex_12.s

UART0_C1_PE_MASK 00000002

Symbol: UART0_C1_PE_MASK
   Definitions



ARM Macro Assembler    Page 188 Alphabetic symbol ordering
Absolute symbols

      At line 2534 in file MKL05Z4.s
   Uses
      None
Comment: UART0_C1_PE_MASK unused
UART0_C1_PE_SHIFT 00000001

Symbol: UART0_C1_PE_SHIFT
   Definitions
      At line 2535 in file MKL05Z4.s
   Uses
      None
Comment: UART0_C1_PE_SHIFT unused
UART0_C1_PT_MASK 00000001

Symbol: UART0_C1_PT_MASK
   Definitions
      At line 2536 in file MKL05Z4.s
   Uses
      None
Comment: UART0_C1_PT_MASK unused
UART0_C1_PT_SHIFT 00000000

Symbol: UART0_C1_PT_SHIFT
   Definitions
      At line 2537 in file MKL05Z4.s
   Uses
      None
Comment: UART0_C1_PT_SHIFT unused
UART0_C1_RSRC_MASK 00000020

Symbol: UART0_C1_RSRC_MASK
   Definitions
      At line 2526 in file MKL05Z4.s
   Uses
      None
Comment: UART0_C1_RSRC_MASK unused
UART0_C1_RSRC_SHIFT 00000005

Symbol: UART0_C1_RSRC_SHIFT
   Definitions
      At line 2527 in file MKL05Z4.s
   Uses
      None
Comment: UART0_C1_RSRC_SHIFT unused
UART0_C1_WAKE_MASK 00000008

Symbol: UART0_C1_WAKE_MASK
   Definitions
      At line 2530 in file MKL05Z4.s
   Uses
      None
Comment: UART0_C1_WAKE_MASK unused
UART0_C1_WAKE_SHIFT 00000003

Symbol: UART0_C1_WAKE_SHIFT
   Definitions
      At line 2531 in file MKL05Z4.s
   Uses
      None



ARM Macro Assembler    Page 189 Alphabetic symbol ordering
Absolute symbols

Comment: UART0_C1_WAKE_SHIFT unused
UART0_C2 4006A003

Symbol: UART0_C2
   Definitions
      At line 2484 in file MKL05Z4.s
   Uses
      None
Comment: UART0_C2 unused
UART0_C2_ILIE_MASK 00000010

Symbol: UART0_C2_ILIE_MASK
   Definitions
      At line 2554 in file MKL05Z4.s
   Uses
      None
Comment: UART0_C2_ILIE_MASK unused
UART0_C2_ILIE_SHIFT 00000004

Symbol: UART0_C2_ILIE_SHIFT
   Definitions
      At line 2555 in file MKL05Z4.s
   Uses
      None
Comment: UART0_C2_ILIE_SHIFT unused
UART0_C2_OFFSET 00000003

Symbol: UART0_C2_OFFSET
   Definitions
      At line 2472 in file MKL05Z4.s
   Uses
      At line 2484 in file MKL05Z4.s
      At line 1095 in file Ex_12.s
      At line 1114 in file Ex_12.s
      At line 1307 in file Ex_12.s
      At line 1309 in file Ex_12.s
      At line 1353 in file Ex_12.s

UART0_C2_RE_MASK 00000004

Symbol: UART0_C2_RE_MASK
   Definitions
      At line 2558 in file MKL05Z4.s
   Uses
      At line 200 in file Ex_12.s
Comment: UART0_C2_RE_MASK used once
UART0_C2_RE_SHIFT 00000002

Symbol: UART0_C2_RE_SHIFT
   Definitions
      At line 2559 in file MKL05Z4.s
   Uses
      None
Comment: UART0_C2_RE_SHIFT unused
UART0_C2_RIE_MASK 00000020

Symbol: UART0_C2_RIE_MASK
   Definitions
      At line 2552 in file MKL05Z4.s



ARM Macro Assembler    Page 190 Alphabetic symbol ordering
Absolute symbols

   Uses
      At line 201 in file Ex_12.s
Comment: UART0_C2_RIE_MASK used once
UART0_C2_RIE_SHIFT 00000005

Symbol: UART0_C2_RIE_SHIFT
   Definitions
      At line 2553 in file MKL05Z4.s
   Uses
      None
Comment: UART0_C2_RIE_SHIFT unused
UART0_C2_RWU_MASK 00000002

Symbol: UART0_C2_RWU_MASK
   Definitions
      At line 2560 in file MKL05Z4.s
   Uses
      None
Comment: UART0_C2_RWU_MASK unused
UART0_C2_RWU_SHIFT 00000001

Symbol: UART0_C2_RWU_SHIFT
   Definitions
      At line 2561 in file MKL05Z4.s
   Uses
      None
Comment: UART0_C2_RWU_SHIFT unused
UART0_C2_SBK_MASK 00000001

Symbol: UART0_C2_SBK_MASK
   Definitions
      At line 2562 in file MKL05Z4.s
   Uses
      None
Comment: UART0_C2_SBK_MASK unused
UART0_C2_SBK_SHIFT 00000000

Symbol: UART0_C2_SBK_SHIFT
   Definitions
      At line 2563 in file MKL05Z4.s
   Uses
      None
Comment: UART0_C2_SBK_SHIFT unused
UART0_C2_TCIE_MASK 00000040

Symbol: UART0_C2_TCIE_MASK
   Definitions
      At line 2550 in file MKL05Z4.s
   Uses
      None
Comment: UART0_C2_TCIE_MASK unused
UART0_C2_TCIE_SHIFT 00000006

Symbol: UART0_C2_TCIE_SHIFT
   Definitions
      At line 2551 in file MKL05Z4.s
   Uses
      None
Comment: UART0_C2_TCIE_SHIFT unused



ARM Macro Assembler    Page 191 Alphabetic symbol ordering
Absolute symbols

UART0_C2_TE_MASK 00000008

Symbol: UART0_C2_TE_MASK
   Definitions
      At line 2556 in file MKL05Z4.s
   Uses
      At line 200 in file Ex_12.s
Comment: UART0_C2_TE_MASK used once
UART0_C2_TE_SHIFT 00000003

Symbol: UART0_C2_TE_SHIFT
   Definitions
      At line 2557 in file MKL05Z4.s
   Uses
      None
Comment: UART0_C2_TE_SHIFT unused
UART0_C2_TIE_MASK 00000080

Symbol: UART0_C2_TIE_MASK
   Definitions
      At line 2548 in file MKL05Z4.s
   Uses
      At line 202 in file Ex_12.s
      At line 1096 in file Ex_12.s

UART0_C2_TIE_SHIFT 00000007

Symbol: UART0_C2_TIE_SHIFT
   Definitions
      At line 2549 in file MKL05Z4.s
   Uses
      None
Comment: UART0_C2_TIE_SHIFT unused
UART0_C2_TI_RI 000000AC

Symbol: UART0_C2_TI_RI
   Definitions
      At line 202 in file Ex_12.s
   Uses
      None
Comment: UART0_C2_TI_RI unused
UART0_C2_T_R 0000000C

Symbol: UART0_C2_T_R
   Definitions
      At line 200 in file Ex_12.s
   Uses
      At line 201 in file Ex_12.s
      At line 1306 in file Ex_12.s
      At line 1352 in file Ex_12.s

UART0_C2_T_RI 0000002C

Symbol: UART0_C2_T_RI
   Definitions
      At line 201 in file Ex_12.s
   Uses
      At line 202 in file Ex_12.s
      At line 1113 in file Ex_12.s



ARM Macro Assembler    Page 192 Alphabetic symbol ordering
Absolute symbols


UART0_C3 4006A006

Symbol: UART0_C3
   Definitions
      At line 2487 in file MKL05Z4.s
   Uses
      None
Comment: UART0_C3 unused
UART0_C3_FEIE_MASK 00000002

Symbol: UART0_C3_FEIE_MASK
   Definitions
      At line 2587 in file MKL05Z4.s
   Uses
      None
Comment: UART0_C3_FEIE_MASK unused
UART0_C3_FEIE_SHIFT 00000001

Symbol: UART0_C3_FEIE_SHIFT
   Definitions
      At line 2588 in file MKL05Z4.s
   Uses
      None
Comment: UART0_C3_FEIE_SHIFT unused
UART0_C3_NEIE_MASK 00000004

Symbol: UART0_C3_NEIE_MASK
   Definitions
      At line 2585 in file MKL05Z4.s
   Uses
      None
Comment: UART0_C3_NEIE_MASK unused
UART0_C3_NEIE_SHIFT 00000002

Symbol: UART0_C3_NEIE_SHIFT
   Definitions
      At line 2586 in file MKL05Z4.s
   Uses
      None
Comment: UART0_C3_NEIE_SHIFT unused
UART0_C3_NO_TXINV 00000000

Symbol: UART0_C3_NO_TXINV
   Definitions
      At line 216 in file Ex_12.s
   Uses
      At line 1338 in file Ex_12.s
Comment: UART0_C3_NO_TXINV used once
UART0_C3_OFFSET 00000006

Symbol: UART0_C3_OFFSET
   Definitions
      At line 2475 in file MKL05Z4.s
   Uses
      At line 2487 in file MKL05Z4.s
      At line 1340 in file Ex_12.s

UART0_C3_ORIE_MASK 00000008



ARM Macro Assembler    Page 193 Alphabetic symbol ordering
Absolute symbols


Symbol: UART0_C3_ORIE_MASK
   Definitions
      At line 2583 in file MKL05Z4.s
   Uses
      None
Comment: UART0_C3_ORIE_MASK unused
UART0_C3_ORIE_SHIFT 00000003

Symbol: UART0_C3_ORIE_SHIFT
   Definitions
      At line 2584 in file MKL05Z4.s
   Uses
      None
Comment: UART0_C3_ORIE_SHIFT unused
UART0_C3_PEIE_MASK 00000001

Symbol: UART0_C3_PEIE_MASK
   Definitions
      At line 2589 in file MKL05Z4.s
   Uses
      None
Comment: UART0_C3_PEIE_MASK unused
UART0_C3_PEIE_SHIFT 00000000

Symbol: UART0_C3_PEIE_SHIFT
   Definitions
      At line 2590 in file MKL05Z4.s
   Uses
      None
Comment: UART0_C3_PEIE_SHIFT unused
UART0_C3_R8T9_MASK 00000080

Symbol: UART0_C3_R8T9_MASK
   Definitions
      At line 2575 in file MKL05Z4.s
   Uses
      None
Comment: UART0_C3_R8T9_MASK unused
UART0_C3_R8T9_SHIFT 00000007

Symbol: UART0_C3_R8T9_SHIFT
   Definitions
      At line 2576 in file MKL05Z4.s
   Uses
      None
Comment: UART0_C3_R8T9_SHIFT unused
UART0_C3_R9T8_MASK 00000040

Symbol: UART0_C3_R9T8_MASK
   Definitions
      At line 2577 in file MKL05Z4.s
   Uses
      None
Comment: UART0_C3_R9T8_MASK unused
UART0_C3_R9T8_SHIFT 00000006

Symbol: UART0_C3_R9T8_SHIFT
   Definitions



ARM Macro Assembler    Page 194 Alphabetic symbol ordering
Absolute symbols

      At line 2578 in file MKL05Z4.s
   Uses
      None
Comment: UART0_C3_R9T8_SHIFT unused
UART0_C3_TXDIR_MASK 00000020

Symbol: UART0_C3_TXDIR_MASK
   Definitions
      At line 2579 in file MKL05Z4.s
   Uses
      None
Comment: UART0_C3_TXDIR_MASK unused
UART0_C3_TXDIR_SHIFT 00000005

Symbol: UART0_C3_TXDIR_SHIFT
   Definitions
      At line 2580 in file MKL05Z4.s
   Uses
      None
Comment: UART0_C3_TXDIR_SHIFT unused
UART0_C3_TXINV_MASK 00000010

Symbol: UART0_C3_TXINV_MASK
   Definitions
      At line 2581 in file MKL05Z4.s
   Uses
      None
Comment: UART0_C3_TXINV_MASK unused
UART0_C3_TXINV_SHIFT 00000004

Symbol: UART0_C3_TXINV_SHIFT
   Definitions
      At line 2582 in file MKL05Z4.s
   Uses
      None
Comment: UART0_C3_TXINV_SHIFT unused
UART0_C4 4006A00A

Symbol: UART0_C4
   Definitions
      At line 2491 in file MKL05Z4.s
   Uses
      None
Comment: UART0_C4 unused
UART0_C4_M10_MASK 00000020

Symbol: UART0_C4_M10_MASK
   Definitions
      At line 2603 in file MKL05Z4.s
   Uses
      None
Comment: UART0_C4_M10_MASK unused
UART0_C4_M10_SHIFT 00000005

Symbol: UART0_C4_M10_SHIFT
   Definitions
      At line 2604 in file MKL05Z4.s
   Uses
      None



ARM Macro Assembler    Page 195 Alphabetic symbol ordering
Absolute symbols

Comment: UART0_C4_M10_SHIFT unused
UART0_C4_MAEN1_MASK 00000080

Symbol: UART0_C4_MAEN1_MASK
   Definitions
      At line 2599 in file MKL05Z4.s
   Uses
      None
Comment: UART0_C4_MAEN1_MASK unused
UART0_C4_MAEN1_SHIFT 00000007

Symbol: UART0_C4_MAEN1_SHIFT
   Definitions
      At line 2600 in file MKL05Z4.s
   Uses
      None
Comment: UART0_C4_MAEN1_SHIFT unused
UART0_C4_MAEN2_MASK 00000040

Symbol: UART0_C4_MAEN2_MASK
   Definitions
      At line 2601 in file MKL05Z4.s
   Uses
      None
Comment: UART0_C4_MAEN2_MASK unused
UART0_C4_MAEN2_SHIFT 00000006

Symbol: UART0_C4_MAEN2_SHIFT
   Definitions
      At line 2602 in file MKL05Z4.s
   Uses
      None
Comment: UART0_C4_MAEN2_SHIFT unused
UART0_C4_NO_MATCH_OSR_16 0000000F

Symbol: UART0_C4_NO_MATCH_OSR_16
   Definitions
      At line 226 in file Ex_12.s
   Uses
      At line 1341 in file Ex_12.s
Comment: UART0_C4_NO_MATCH_OSR_16 used once
UART0_C4_OFFSET 0000000A

Symbol: UART0_C4_OFFSET
   Definitions
      At line 2479 in file MKL05Z4.s
   Uses
      At line 2491 in file MKL05Z4.s
      At line 1342 in file Ex_12.s

UART0_C4_OSR_16 0000000F

Symbol: UART0_C4_OSR_16
   Definitions
      At line 225 in file Ex_12.s
   Uses
      At line 226 in file Ex_12.s
Comment: UART0_C4_OSR_16 used once
UART0_C4_OSR_MASK 0000001F



ARM Macro Assembler    Page 196 Alphabetic symbol ordering
Absolute symbols


Symbol: UART0_C4_OSR_MASK
   Definitions
      At line 2605 in file MKL05Z4.s
   Uses
      None
Comment: UART0_C4_OSR_MASK unused
UART0_C4_OSR_SHIFT 00000000

Symbol: UART0_C4_OSR_SHIFT
   Definitions
      At line 2606 in file MKL05Z4.s
   Uses
      None
Comment: UART0_C4_OSR_SHIFT unused
UART0_C5 4006A00B

Symbol: UART0_C5
   Definitions
      At line 2492 in file MKL05Z4.s
   Uses
      None
Comment: UART0_C5 unused
UART0_C5_BOTHEDGE_MASK 00000002

Symbol: UART0_C5_BOTHEDGE_MASK
   Definitions
      At line 2619 in file MKL05Z4.s
   Uses
      None
Comment: UART0_C5_BOTHEDGE_MASK unused
UART0_C5_BOTHEDGE_SHIFT 00000001

Symbol: UART0_C5_BOTHEDGE_SHIFT
   Definitions
      At line 2620 in file MKL05Z4.s
   Uses
      None
Comment: UART0_C5_BOTHEDGE_SHIFT unused
UART0_C5_NO_DMA_SSR_SYNC 00000000

Symbol: UART0_C5_NO_DMA_SSR_SYNC
   Definitions
      At line 235 in file Ex_12.s
   Uses
      At line 1343 in file Ex_12.s
Comment: UART0_C5_NO_DMA_SSR_SYNC used once
UART0_C5_OFFSET 0000000B

Symbol: UART0_C5_OFFSET
   Definitions
      At line 2480 in file MKL05Z4.s
   Uses
      At line 2492 in file MKL05Z4.s
      At line 1344 in file Ex_12.s

UART0_C5_RDMAE_MASK 00000020

Symbol: UART0_C5_RDMAE_MASK



ARM Macro Assembler    Page 197 Alphabetic symbol ordering
Absolute symbols

   Definitions
      At line 2617 in file MKL05Z4.s
   Uses
      None
Comment: UART0_C5_RDMAE_MASK unused
UART0_C5_RDMAE_SHIFT 00000005

Symbol: UART0_C5_RDMAE_SHIFT
   Definitions
      At line 2618 in file MKL05Z4.s
   Uses
      None
Comment: UART0_C5_RDMAE_SHIFT unused
UART0_C5_RESYNCDIS_MASK 00000001

Symbol: UART0_C5_RESYNCDIS_MASK
   Definitions
      At line 2621 in file MKL05Z4.s
   Uses
      None
Comment: UART0_C5_RESYNCDIS_MASK unused
UART0_C5_RESYNCDIS_SHIFT 00000000

Symbol: UART0_C5_RESYNCDIS_SHIFT
   Definitions
      At line 2622 in file MKL05Z4.s
   Uses
      None
Comment: UART0_C5_RESYNCDIS_SHIFT unused
UART0_C5_TDMAE_MASK 00000080

Symbol: UART0_C5_TDMAE_MASK
   Definitions
      At line 2615 in file MKL05Z4.s
   Uses
      None
Comment: UART0_C5_TDMAE_MASK unused
UART0_C5_TDMAE_SHIFT 00000007

Symbol: UART0_C5_TDMAE_SHIFT
   Definitions
      At line 2616 in file MKL05Z4.s
   Uses
      None
Comment: UART0_C5_TDMAE_SHIFT unused
UART0_D 4006A007

Symbol: UART0_D
   Definitions
      At line 2488 in file MKL05Z4.s
   Uses
      None
Comment: UART0_D unused
UART0_D_OFFSET 00000007

Symbol: UART0_D_OFFSET
   Definitions
      At line 2476 in file MKL05Z4.s
   Uses



ARM Macro Assembler    Page 198 Alphabetic symbol ordering
Absolute symbols

      At line 2488 in file MKL05Z4.s
      At line 1110 in file Ex_12.s
      At line 1122 in file Ex_12.s

UART0_D_R0T0_MASK 00000001

Symbol: UART0_D_R0T0_MASK
   Definitions
      At line 2655 in file MKL05Z4.s
   Uses
      None
Comment: UART0_D_R0T0_MASK unused
UART0_D_R0T0_SHIFT 00000000

Symbol: UART0_D_R0T0_SHIFT
   Definitions
      At line 2656 in file MKL05Z4.s
   Uses
      None
Comment: UART0_D_R0T0_SHIFT unused
UART0_D_R1T1_MASK 00000002

Symbol: UART0_D_R1T1_MASK
   Definitions
      At line 2653 in file MKL05Z4.s
   Uses
      None
Comment: UART0_D_R1T1_MASK unused
UART0_D_R1T1_SHIFT 00000001

Symbol: UART0_D_R1T1_SHIFT
   Definitions
      At line 2654 in file MKL05Z4.s
   Uses
      None
Comment: UART0_D_R1T1_SHIFT unused
UART0_D_R2T2_MASK 00000004

Symbol: UART0_D_R2T2_MASK
   Definitions
      At line 2651 in file MKL05Z4.s
   Uses
      None
Comment: UART0_D_R2T2_MASK unused
UART0_D_R2T2_SHIFT 00000002

Symbol: UART0_D_R2T2_SHIFT
   Definitions
      At line 2652 in file MKL05Z4.s
   Uses
      None
Comment: UART0_D_R2T2_SHIFT unused
UART0_D_R3T3_MASK 00000008

Symbol: UART0_D_R3T3_MASK
   Definitions
      At line 2649 in file MKL05Z4.s
   Uses
      None



ARM Macro Assembler    Page 199 Alphabetic symbol ordering
Absolute symbols

Comment: UART0_D_R3T3_MASK unused
UART0_D_R3T3_SHIFT 00000003

Symbol: UART0_D_R3T3_SHIFT
   Definitions
      At line 2650 in file MKL05Z4.s
   Uses
      None
Comment: UART0_D_R3T3_SHIFT unused
UART0_D_R4T4_MASK 00000010

Symbol: UART0_D_R4T4_MASK
   Definitions
      At line 2647 in file MKL05Z4.s
   Uses
      None
Comment: UART0_D_R4T4_MASK unused
UART0_D_R4T4_SHIFT 00000004

Symbol: UART0_D_R4T4_SHIFT
   Definitions
      At line 2648 in file MKL05Z4.s
   Uses
      None
Comment: UART0_D_R4T4_SHIFT unused
UART0_D_R5T5_MASK 00000020

Symbol: UART0_D_R5T5_MASK
   Definitions
      At line 2645 in file MKL05Z4.s
   Uses
      None
Comment: UART0_D_R5T5_MASK unused
UART0_D_R5T5_SHIFT 00000005

Symbol: UART0_D_R5T5_SHIFT
   Definitions
      At line 2646 in file MKL05Z4.s
   Uses
      None
Comment: UART0_D_R5T5_SHIFT unused
UART0_D_R6T6_MASK 00000040

Symbol: UART0_D_R6T6_MASK
   Definitions
      At line 2643 in file MKL05Z4.s
   Uses
      None
Comment: UART0_D_R6T6_MASK unused
UART0_D_R6T6_SHIFT 00000006

Symbol: UART0_D_R6T6_SHIFT
   Definitions
      At line 2644 in file MKL05Z4.s
   Uses
      None
Comment: UART0_D_R6T6_SHIFT unused
UART0_D_R7T7_MASK 00000080




ARM Macro Assembler    Page 200 Alphabetic symbol ordering
Absolute symbols

Symbol: UART0_D_R7T7_MASK
   Definitions
      At line 2641 in file MKL05Z4.s
   Uses
      None
Comment: UART0_D_R7T7_MASK unused
UART0_D_R7T7_SHIFT 00000007

Symbol: UART0_D_R7T7_SHIFT
   Definitions
      At line 2642 in file MKL05Z4.s
   Uses
      None
Comment: UART0_D_R7T7_SHIFT unused
UART0_IPR E000E40C

Symbol: UART0_IPR
   Definitions
      At line 1450 in file MKL05Z4.s
   Uses
      At line 1172 in file Ex_12.s
      At line 1312 in file Ex_12.s

UART0_IRQ_MASK 00001000

Symbol: UART0_IRQ_MASK
   Definitions
      At line 1520 in file MKL05Z4.s
   Uses
      At line 68 in file Ex_12.s
      At line 78 in file Ex_12.s
      At line 98 in file Ex_12.s

UART0_IRQ_PRIORITY 00000003

Symbol: UART0_IRQ_PRIORITY
   Definitions
      At line 87 in file Ex_12.s
   Uses
      At line 89 in file Ex_12.s
Comment: UART0_IRQ_PRIORITY used once
UART0_IRQn 0000000C

Symbol: UART0_IRQn
   Definitions
      At line 169 in file MKL05Z4.s
   Uses
      At line 1520 in file MKL05Z4.s
Comment: UART0_IRQn used once
UART0_MA1 4006A008

Symbol: UART0_MA1
   Definitions
      At line 2489 in file MKL05Z4.s
   Uses
      None
Comment: UART0_MA1 unused
UART0_MA1_MA_MASK 000000FF




ARM Macro Assembler    Page 201 Alphabetic symbol ordering
Absolute symbols

Symbol: UART0_MA1_MA_MASK
   Definitions
      At line 2660 in file MKL05Z4.s
   Uses
      None
Comment: UART0_MA1_MA_MASK unused
UART0_MA1_MA_SHIFT 00000000

Symbol: UART0_MA1_MA_SHIFT
   Definitions
      At line 2661 in file MKL05Z4.s
   Uses
      None
Comment: UART0_MA1_MA_SHIFT unused
UART0_MA1_OFFSET 00000008

Symbol: UART0_MA1_OFFSET
   Definitions
      At line 2477 in file MKL05Z4.s
   Uses
      At line 2489 in file MKL05Z4.s
Comment: UART0_MA1_OFFSET used once
UART0_MA2 4006A009

Symbol: UART0_MA2
   Definitions
      At line 2490 in file MKL05Z4.s
   Uses
      None
Comment: UART0_MA2 unused
UART0_MA2_MA_MASK 000000FF

Symbol: UART0_MA2_MA_MASK
   Definitions
      At line 2665 in file MKL05Z4.s
   Uses
      None
Comment: UART0_MA2_MA_MASK unused
UART0_MA2_MA_SHIFT 00000000

Symbol: UART0_MA2_MA_SHIFT
   Definitions
      At line 2666 in file MKL05Z4.s
   Uses
      None
Comment: UART0_MA2_MA_SHIFT unused
UART0_MA2_OFFSET 00000009

Symbol: UART0_MA2_OFFSET
   Definitions
      At line 2478 in file MKL05Z4.s
   Uses
      At line 2490 in file MKL05Z4.s
Comment: UART0_MA2_OFFSET used once
UART0_PRI_POS 00000006

Symbol: UART0_PRI_POS
   Definitions
      At line 1486 in file MKL05Z4.s



ARM Macro Assembler    Page 202 Alphabetic symbol ordering
Absolute symbols

   Uses
      At line 88 in file Ex_12.s
      At line 89 in file Ex_12.s

UART0_S1 4006A004

Symbol: UART0_S1
   Definitions
      At line 2485 in file MKL05Z4.s
   Uses
      None
Comment: UART0_S1 unused
UART0_S1_CLEAR_FLAGS 0000001F

Symbol: UART0_S1_CLEAR_FLAGS
   Definitions
      At line 250 in file Ex_12.s
   Uses
      At line 1345 in file Ex_12.s
Comment: UART0_S1_CLEAR_FLAGS used once
UART0_S1_FE_MASK 00000002

Symbol: UART0_S1_FE_MASK
   Definitions
      At line 2689 in file MKL05Z4.s
   Uses
      At line 250 in file Ex_12.s
Comment: UART0_S1_FE_MASK used once
UART0_S1_FE_SHIFT 00000001

Symbol: UART0_S1_FE_SHIFT
   Definitions
      At line 2690 in file MKL05Z4.s
   Uses
      None
Comment: UART0_S1_FE_SHIFT unused
UART0_S1_IDLE_MASK 00000010

Symbol: UART0_S1_IDLE_MASK
   Definitions
      At line 2683 in file MKL05Z4.s
   Uses
      At line 250 in file Ex_12.s
Comment: UART0_S1_IDLE_MASK used once
UART0_S1_IDLE_SHIFT 00000004

Symbol: UART0_S1_IDLE_SHIFT
   Definitions
      At line 2684 in file MKL05Z4.s
   Uses
      None
Comment: UART0_S1_IDLE_SHIFT unused
UART0_S1_NF_MASK 00000004

Symbol: UART0_S1_NF_MASK
   Definitions
      At line 2687 in file MKL05Z4.s
   Uses
      At line 250 in file Ex_12.s



ARM Macro Assembler    Page 203 Alphabetic symbol ordering
Absolute symbols

Comment: UART0_S1_NF_MASK used once
UART0_S1_NF_SHIFT 00000002

Symbol: UART0_S1_NF_SHIFT
   Definitions
      At line 2688 in file MKL05Z4.s
   Uses
      None
Comment: UART0_S1_NF_SHIFT unused
UART0_S1_OFFSET 00000004

Symbol: UART0_S1_OFFSET
   Definitions
      At line 2473 in file MKL05Z4.s
   Uses
      At line 2485 in file MKL05Z4.s
      At line 1101 in file Ex_12.s
      At line 1118 in file Ex_12.s
      At line 1346 in file Ex_12.s

UART0_S1_OR_MASK 00000008

Symbol: UART0_S1_OR_MASK
   Definitions
      At line 2685 in file MKL05Z4.s
   Uses
      At line 250 in file Ex_12.s
Comment: UART0_S1_OR_MASK used once
UART0_S1_OR_SHIFT 00000003

Symbol: UART0_S1_OR_SHIFT
   Definitions
      At line 2686 in file MKL05Z4.s
   Uses
      None
Comment: UART0_S1_OR_SHIFT unused
UART0_S1_PF_MASK 00000001

Symbol: UART0_S1_PF_MASK
   Definitions
      At line 2691 in file MKL05Z4.s
   Uses
      At line 250 in file Ex_12.s
Comment: UART0_S1_PF_MASK used once
UART0_S1_PF_SHIFT 00000000

Symbol: UART0_S1_PF_SHIFT
   Definitions
      At line 2692 in file MKL05Z4.s
   Uses
      None
Comment: UART0_S1_PF_SHIFT unused
UART0_S1_RDRF_MASK 00000020

Symbol: UART0_S1_RDRF_MASK
   Definitions
      At line 2681 in file MKL05Z4.s
   Uses
      At line 1117 in file Ex_12.s



ARM Macro Assembler    Page 204 Alphabetic symbol ordering
Absolute symbols

Comment: UART0_S1_RDRF_MASK used once
UART0_S1_RDRF_SHIFT 00000005

Symbol: UART0_S1_RDRF_SHIFT
   Definitions
      At line 2682 in file MKL05Z4.s
   Uses
      None
Comment: UART0_S1_RDRF_SHIFT unused
UART0_S1_TC_MASK 00000040

Symbol: UART0_S1_TC_MASK
   Definitions
      At line 2679 in file MKL05Z4.s
   Uses
      None
Comment: UART0_S1_TC_MASK unused
UART0_S1_TC_SHIFT 00000006

Symbol: UART0_S1_TC_SHIFT
   Definitions
      At line 2680 in file MKL05Z4.s
   Uses
      None
Comment: UART0_S1_TC_SHIFT unused
UART0_S1_TDRE_MASK 00000080

Symbol: UART0_S1_TDRE_MASK
   Definitions
      At line 2677 in file MKL05Z4.s
   Uses
      At line 1100 in file Ex_12.s
Comment: UART0_S1_TDRE_MASK used once
UART0_S1_TDRE_SHIFT 00000007

Symbol: UART0_S1_TDRE_SHIFT
   Definitions
      At line 2678 in file MKL05Z4.s
   Uses
      None
Comment: UART0_S1_TDRE_SHIFT unused
UART0_S2 4006A005

Symbol: UART0_S2
   Definitions
      At line 2486 in file MKL05Z4.s
   Uses
      None
Comment: UART0_S2 unused
UART0_S2_BRK13_MASK 00000004

Symbol: UART0_S2_BRK13_MASK
   Definitions
      At line 2713 in file MKL05Z4.s
   Uses
      None
Comment: UART0_S2_BRK13_MASK unused
UART0_S2_BRK13_SHIFT 00000002




ARM Macro Assembler    Page 205 Alphabetic symbol ordering
Absolute symbols

Symbol: UART0_S2_BRK13_SHIFT
   Definitions
      At line 2714 in file MKL05Z4.s
   Uses
      None
Comment: UART0_S2_BRK13_SHIFT unused
UART0_S2_LBKDE_MASK 00000002

Symbol: UART0_S2_LBKDE_MASK
   Definitions
      At line 2715 in file MKL05Z4.s
   Uses
      None
Comment: UART0_S2_LBKDE_MASK unused
UART0_S2_LBKDE_SHIFT 00000001

Symbol: UART0_S2_LBKDE_SHIFT
   Definitions
      At line 2716 in file MKL05Z4.s
   Uses
      None
Comment: UART0_S2_LBKDE_SHIFT unused
UART0_S2_LBKDIF_MASK 00000080

Symbol: UART0_S2_LBKDIF_MASK
   Definitions
      At line 2703 in file MKL05Z4.s
   Uses
      At line 264 in file Ex_12.s
Comment: UART0_S2_LBKDIF_MASK used once
UART0_S2_LBKDIF_SHIFT 00000007

Symbol: UART0_S2_LBKDIF_SHIFT
   Definitions
      At line 2704 in file MKL05Z4.s
   Uses
      None
Comment: UART0_S2_LBKDIF_SHIFT unused
UART0_S2_MSBF_MASK 00000020

Symbol: UART0_S2_MSBF_MASK
   Definitions
      At line 2707 in file MKL05Z4.s
   Uses
      None
Comment: UART0_S2_MSBF_MASK unused
UART0_S2_MSBF_SHIFT 00000005

Symbol: UART0_S2_MSBF_SHIFT
   Definitions
      At line 2708 in file MKL05Z4.s
   Uses
      None
Comment: UART0_S2_MSBF_SHIFT unused
UART0_S2_NO_RXINV_BRK10_NO_LBKDETECT_CLEAR_FLAGS 000000C0

Symbol: UART0_S2_NO_RXINV_BRK10_NO_LBKDETECT_CLEAR_FLAGS
   Definitions
      At line 264 in file Ex_12.s



ARM Macro Assembler    Page 206 Alphabetic symbol ordering
Absolute symbols

   Uses
      At line 1347 in file Ex_12.s
Comment: UART0_S2_NO_RXINV_BRK10_NO_LBKDETECT_CLEAR_FLAGS used once
UART0_S2_OFFSET 00000005

Symbol: UART0_S2_OFFSET
   Definitions
      At line 2474 in file MKL05Z4.s
   Uses
      At line 2486 in file MKL05Z4.s
      At line 1348 in file Ex_12.s

UART0_S2_RAF_MASK 00000001

Symbol: UART0_S2_RAF_MASK
   Definitions
      At line 2717 in file MKL05Z4.s
   Uses
      None
Comment: UART0_S2_RAF_MASK unused
UART0_S2_RAF_SHIFT 00000000

Symbol: UART0_S2_RAF_SHIFT
   Definitions
      At line 2718 in file MKL05Z4.s
   Uses
      None
Comment: UART0_S2_RAF_SHIFT unused
UART0_S2_RWUID_MASK 00000008

Symbol: UART0_S2_RWUID_MASK
   Definitions
      At line 2711 in file MKL05Z4.s
   Uses
      None
Comment: UART0_S2_RWUID_MASK unused
UART0_S2_RWUID_SHIFT 00000003

Symbol: UART0_S2_RWUID_SHIFT
   Definitions
      At line 2712 in file MKL05Z4.s
   Uses
      None
Comment: UART0_S2_RWUID_SHIFT unused
UART0_S2_RXEDGIF_MASK 00000040

Symbol: UART0_S2_RXEDGIF_MASK
   Definitions
      At line 2705 in file MKL05Z4.s
   Uses
      At line 264 in file Ex_12.s
Comment: UART0_S2_RXEDGIF_MASK used once
UART0_S2_RXEDGIF_SHIFT 00000006

Symbol: UART0_S2_RXEDGIF_SHIFT
   Definitions
      At line 2706 in file MKL05Z4.s
   Uses
      None



ARM Macro Assembler    Page 207 Alphabetic symbol ordering
Absolute symbols

Comment: UART0_S2_RXEDGIF_SHIFT unused
UART0_S2_RXINV_MASK 00000010

Symbol: UART0_S2_RXINV_MASK
   Definitions
      At line 2709 in file MKL05Z4.s
   Uses
      None
Comment: UART0_S2_RXINV_MASK unused
UART0_S2_RXINV_SHIFT 00000004

Symbol: UART0_S2_RXINV_SHIFT
   Definitions
      At line 2710 in file MKL05Z4.s
   Uses
      None
Comment: UART0_S2_RXINV_SHIFT unused
UART0_Vector 0000001C

Symbol: UART0_Vector
   Definitions
      At line 1571 in file MKL05Z4.s
   Uses
      None
Comment: UART0_Vector unused
VECTOR_SIZE 00000004

Symbol: VECTOR_SIZE
   Definitions
      At line 50 in file MKL05Z4.s
   Uses
      None
Comment: VECTOR_SIZE unused
VECTOR_TABLE_SIZE 000000C0

Symbol: VECTOR_TABLE_SIZE
   Definitions
      At line 49 in file MKL05Z4.s
   Uses
      None
Comment: VECTOR_TABLE_SIZE unused
WORD_SIZE 00000004

Symbol: WORD_SIZE
   Definitions
      At line 39 in file MKL05Z4.s
   Uses
      None
Comment: WORD_SIZE unused
Y_ascii 00000059

Symbol: Y_ascii
   Definitions
      At line 35 in file Ex_12.s
   Uses
      At line 419 in file Ex_12.s
Comment: Y_ascii used once
__CM0PLUS_REV 00000000




ARM Macro Assembler    Page 208 Alphabetic symbol ordering
Absolute symbols

Symbol: __CM0PLUS_REV
   Definitions
      At line 139 in file MKL05Z4.s
   Uses
      None
Comment: __CM0PLUS_REV unused
__MPU_PRESENT 00000000

Symbol: __MPU_PRESENT
   Definitions
      At line 140 in file MKL05Z4.s
   Uses
      None
Comment: __MPU_PRESENT unused
__NVIC_PRIO_BITS 00000002

Symbol: __NVIC_PRIO_BITS
   Definitions
      At line 141 in file MKL05Z4.s
   Uses
      At line 1474 in file MKL05Z4.s
      At line 1475 in file MKL05Z4.s
      At line 1476 in file MKL05Z4.s
      At line 1477 in file MKL05Z4.s
      At line 1478 in file MKL05Z4.s
      At line 1479 in file MKL05Z4.s
      At line 1480 in file MKL05Z4.s
      At line 1481 in file MKL05Z4.s
      At line 1482 in file MKL05Z4.s
      At line 1483 in file MKL05Z4.s
      At line 1484 in file MKL05Z4.s
      At line 1485 in file MKL05Z4.s
      At line 1486 in file MKL05Z4.s
      At line 1487 in file MKL05Z4.s
      At line 1488 in file MKL05Z4.s
      At line 1489 in file MKL05Z4.s
      At line 1490 in file MKL05Z4.s
      At line 1491 in file MKL05Z4.s
      At line 1492 in file MKL05Z4.s
      At line 1493 in file MKL05Z4.s
      At line 1494 in file MKL05Z4.s
      At line 1495 in file MKL05Z4.s
      At line 1496 in file MKL05Z4.s
      At line 1497 in file MKL05Z4.s
      At line 1498 in file MKL05Z4.s
      At line 1499 in file MKL05Z4.s
      At line 1500 in file MKL05Z4.s
      At line 1501 in file MKL05Z4.s
      At line 1502 in file MKL05Z4.s
      At line 1503 in file MKL05Z4.s
      At line 1504 in file MKL05Z4.s
      At line 1505 in file MKL05Z4.s

__VTOR_PRESENT 00000001

Symbol: __VTOR_PRESENT
   Definitions
      At line 144 in file MKL05Z4.s
   Uses



ARM Macro Assembler    Page 209 Alphabetic symbol ordering
Absolute symbols

      None
Comment: __VTOR_PRESENT unused
__Vectors_Size 000000C0

Symbol: __Vectors_Size
   Definitions
      At line 1525 in file Ex_12.s
   Uses
      At line 1462 in file Ex_12.s
Comment: __Vectors_Size used once
__Vendor_SysTickConfig 00000000

Symbol: __Vendor_SysTickConfig
   Definitions
      At line 142 in file MKL05Z4.s
   Uses
      None
Comment: __Vendor_SysTickConfig unused
n 00000006

Symbol: n
   Definitions
      At line 27 in file Ex_12.s
   Uses
      None
Comment: n unused
nFPROT0 00000000

Symbol: nFPROT0
   Definitions
      At line 792 in file MKL05Z4.s
   Uses
      At line 793 in file MKL05Z4.s
Comment: nFPROT0 used once
nFPROT1 00000000

Symbol: nFPROT1
   Definitions
      At line 805 in file MKL05Z4.s
   Uses
      At line 806 in file MKL05Z4.s
Comment: nFPROT1 used once
nFPROT2 00000000

Symbol: nFPROT2
   Definitions
      At line 818 in file MKL05Z4.s
   Uses
      At line 819 in file MKL05Z4.s
Comment: nFPROT2 used once
nFPROT3 00000000

Symbol: nFPROT3
   Definitions
      At line 831 in file MKL05Z4.s
   Uses
      At line 832 in file MKL05Z4.s
Comment: nFPROT3 used once
1482 symbols



ARM Macro Assembler    Page 1 Alphabetic symbol ordering
External symbols

DIVU 00000000

Symbol: DIVU
   Definitions
      At line 324 in file Ex_12.s
   Uses
      None
Comment: DIVU unused
Dequeue 00000000

Symbol: Dequeue
   Definitions
      At line 309 in file Ex_12.s
   Uses
      At line 1106 in file Ex_12.s
Comment: Dequeue used once
Dummy_Handler 00000000

Symbol: Dummy_Handler
   Definitions
      At line 1464 in file Ex_12.s
   Uses
      At line 1470 in file Ex_12.s
      At line 1472 in file Ex_12.s
      At line 1473 in file Ex_12.s
      At line 1474 in file Ex_12.s
      At line 1475 in file Ex_12.s
      At line 1476 in file Ex_12.s
      At line 1477 in file Ex_12.s
      At line 1478 in file Ex_12.s
      At line 1479 in file Ex_12.s
      At line 1480 in file Ex_12.s
      At line 1481 in file Ex_12.s
      At line 1482 in file Ex_12.s
      At line 1485 in file Ex_12.s
      At line 1486 in file Ex_12.s
      At line 1488 in file Ex_12.s
      At line 1490 in file Ex_12.s
      At line 1492 in file Ex_12.s
      At line 1494 in file Ex_12.s
      At line 1495 in file Ex_12.s
      At line 1497 in file Ex_12.s
      At line 1499 in file Ex_12.s
      At line 1500 in file Ex_12.s
      At line 1501 in file Ex_12.s
      At line 1502 in file Ex_12.s
      At line 1503 in file Ex_12.s
      At line 1505 in file Ex_12.s
      At line 1506 in file Ex_12.s
      At line 1507 in file Ex_12.s
      At line 1508 in file Ex_12.s
      At line 1509 in file Ex_12.s
      At line 1510 in file Ex_12.s
      At line 1511 in file Ex_12.s
      At line 1512 in file Ex_12.s
      At line 1513 in file Ex_12.s
      At line 1515 in file Ex_12.s
      At line 1516 in file Ex_12.s
      At line 1517 in file Ex_12.s



ARM Macro Assembler    Page 2 Alphabetic symbol ordering
External symbols

      At line 1518 in file Ex_12.s
      At line 1519 in file Ex_12.s
      At line 1520 in file Ex_12.s
      At line 1521 in file Ex_12.s
      At line 1522 in file Ex_12.s
      At line 1523 in file Ex_12.s

Enqueue 00000000

Symbol: Enqueue
   Definitions
      At line 310 in file Ex_12.s
   Uses
      At line 1124 in file Ex_12.s
Comment: Enqueue used once
GetChar 00000000

Symbol: GetChar
   Definitions
      At line 322 in file Ex_12.s
   Uses
      At line 383 in file Ex_12.s
      At line 472 in file Ex_12.s
      At line 1427 in file Ex_12.s
      At line 1443 in file Ex_12.s

HardFault_Handler 00000000

Symbol: HardFault_Handler
   Definitions
      At line 1465 in file Ex_12.s
   Uses
      At line 1471 in file Ex_12.s
Comment: HardFault_Handler used once
InitQueue 00000000

Symbol: InitQueue
   Definitions
      At line 311 in file Ex_12.s
   Uses
      At line 1258 in file Ex_12.s
      At line 1262 in file Ex_12.s

Init_UART0_Polling 00000000

Symbol: Init_UART0_Polling
   Definitions
      At line 320 in file Ex_12.s
   Uses
      At line 336 in file Ex_12.s
Comment: Init_UART0_Polling used once
PutChar 00000000

Symbol: PutChar
   Definitions
      At line 321 in file Ex_12.s
   Uses
      At line 384 in file Ex_12.s
      At line 473 in file Ex_12.s



ARM Macro Assembler    Page 3 Alphabetic symbol ordering
External symbols

      At line 768 in file Ex_12.s
      At line 856 in file Ex_12.s
      At line 937 in file Ex_12.s
      At line 1163 in file Ex_12.s
      At line 1165 in file Ex_12.s
      At line 1387 in file Ex_12.s
      At line 1430 in file Ex_12.s

PutNumHex 00000000

Symbol: PutNumHex
   Definitions
      At line 312 in file Ex_12.s
   Uses
      None
Comment: PutNumHex unused
PutNumU 00000000

Symbol: PutNumU
   Definitions
      At line 316 in file Ex_12.s
   Uses
      At line 463 in file Ex_12.s
Comment: PutNumU used once
PutNumUB 00000000

Symbol: PutNumUB
   Definitions
      At line 313 in file Ex_12.s
   Uses
      None
Comment: PutNumUB unused
QTest 00000000

Symbol: QTest
   Definitions
      At line 307 in file Ex_12.s
   Uses
      None
Comment: QTest unused
Startup 00000000

Symbol: Startup
   Definitions
      At line 304 in file Ex_12.s
   Uses
      At line 332 in file Ex_12.s
Comment: Startup used once
__initial_sp 00000000

Symbol: __initial_sp
   Definitions
      At line 1463 in file Ex_12.s
   Uses
      At line 1468 in file Ex_12.s
Comment: __initial_sp used once
15 symbols
1962 symbols in table
